
/mnt/share/james/src/kernel:     file format elf32-i386


Disassembly of section .text:

00100000 <__code>:
  100000:	02 b0 ad 1b 03 00    	add    0x31bad(%eax),%dh
  100006:	00 00                	add    %al,(%eax)
  100008:	fb                   	sti    
  100009:	4f                   	dec    %edi
  10000a:	52                   	push   %edx
  10000b:	e4 00                	in     $0x0,%al
  10000d:	00 10                	add    %dl,(%eax)
  10000f:	00 00                	add    %al,(%eax)
  100011:	00 10                	add    %dl,(%eax)
  100013:	00 00                	add    %al,(%eax)
  100015:	50                   	push   %eax
  100016:	10 00                	adc    %al,(%eax)
  100018:	fc                   	cld    
  100019:	6d                   	insl   (%dx),%es:(%edi)
  10001a:	10 00                	adc    %al,(%eax)
  10001c:	20 00                	and    %al,(%eax)
  10001e:	10 00                	adc    %al,(%eax)

00100020 <start>:
  100020:	54                   	push   %esp
  100021:	53                   	push   %ebx
  100022:	fa                   	cli    
  100023:	e8 04 00 00 00       	call   10002c <main>
  100028:	eb fe                	jmp    100028 <start+0x8>
	...

0010002c <main>:
  10002c:	8d 4c 24 04          	lea    0x4(%esp),%ecx
  100030:	83 e4 f0             	and    $0xfffffff0,%esp
  100033:	ff 71 fc             	pushl  -0x4(%ecx)
  100036:	55                   	push   %ebp
  100037:	89 e5                	mov    %esp,%ebp
  100039:	51                   	push   %ecx
  10003a:	83 ec 24             	sub    $0x24,%esp
  10003d:	89 4d e8             	mov    %ecx,-0x18(%ebp)
  100040:	8b 55 e8             	mov    -0x18(%ebp),%edx
  100043:	8b 42 04             	mov    0x4(%edx),%eax
  100046:	a3 00 60 10 00       	mov    %eax,0x106000
  10004b:	e8 74 07 00 00       	call   1007c4 <init_descriptor_tables>
  100050:	e8 e1 02 00 00       	call   100336 <monitor_clear>
  100055:	fb                   	sti    
  100056:	c7 04 24 32 00 00 00 	movl   $0x32,(%esp)
  10005d:	e8 66 16 00 00       	call   1016c8 <init_timer>
  100062:	8b 55 e8             	mov    -0x18(%ebp),%edx
  100065:	8b 02                	mov    (%edx),%eax
  100067:	8b 40 14             	mov    0x14(%eax),%eax
  10006a:	85 c0                	test   %eax,%eax
  10006c:	75 1c                	jne    10008a <main+0x5e>
  10006e:	c7 44 24 08 1c 40 10 	movl   $0x10401c,0x8(%esp)
  100075:	00 
  100076:	c7 44 24 04 1e 00 00 	movl   $0x1e,0x4(%esp)
  10007d:	00 
  10007e:	c7 04 24 36 40 10 00 	movl   $0x104036,(%esp)
  100085:	e8 de 06 00 00       	call   100768 <panic_assert>
  10008a:	8b 55 e8             	mov    -0x18(%ebp),%edx
  10008d:	8b 02                	mov    (%edx),%eax
  10008f:	8b 40 18             	mov    0x18(%eax),%eax
  100092:	8b 00                	mov    (%eax),%eax
  100094:	89 45 f4             	mov    %eax,-0xc(%ebp)
  100097:	8b 55 e8             	mov    -0x18(%ebp),%edx
  10009a:	8b 02                	mov    (%edx),%eax
  10009c:	8b 40 18             	mov    0x18(%eax),%eax
  10009f:	83 c0 04             	add    $0x4,%eax
  1000a2:	8b 00                	mov    (%eax),%eax
  1000a4:	89 45 f8             	mov    %eax,-0x8(%ebp)
  1000a7:	8b 45 f8             	mov    -0x8(%ebp),%eax
  1000aa:	a3 04 40 10 00       	mov    %eax,0x104004
  1000af:	e8 06 24 00 00       	call   1024ba <initialise_paging>
  1000b4:	e8 bf 34 00 00       	call   103578 <initialise_tasking>
  1000b9:	8b 45 f4             	mov    -0xc(%ebp),%eax
  1000bc:	89 04 24             	mov    %eax,(%esp)
  1000bf:	e8 2b 30 00 00       	call   1030ef <initialise_initrd>
  1000c4:	a3 14 50 10 00       	mov    %eax,0x105014
  1000c9:	e8 1d 39 00 00       	call   1039eb <initialise_syscalls>
  1000ce:	e8 45 38 00 00       	call   103918 <switch_to_user_mode>
  1000d3:	c7 04 24 3d 40 10 00 	movl   $0x10403d,(%esp)
  1000da:	e8 b5 38 00 00       	call   103994 <syscall_monitor_write>
  1000df:	b8 00 00 00 00       	mov    $0x0,%eax
  1000e4:	83 c4 24             	add    $0x24,%esp
  1000e7:	59                   	pop    %ecx
  1000e8:	5d                   	pop    %ebp
  1000e9:	8d 61 fc             	lea    -0x4(%ecx),%esp
  1000ec:	c3                   	ret    
  1000ed:	00 00                	add    %al,(%eax)
	...

001000f0 <move_cursor>:
  1000f0:	55                   	push   %ebp
  1000f1:	89 e5                	mov    %esp,%ebp
  1000f3:	83 ec 18             	sub    $0x18,%esp
  1000f6:	0f b6 05 01 50 10 00 	movzbl 0x105001,%eax
  1000fd:	0f b6 d0             	movzbl %al,%edx
  100100:	89 d0                	mov    %edx,%eax
  100102:	c1 e0 02             	shl    $0x2,%eax
  100105:	01 d0                	add    %edx,%eax
  100107:	c1 e0 04             	shl    $0x4,%eax
  10010a:	0f b7 d0             	movzwl %ax,%edx
  10010d:	0f b6 05 00 50 10 00 	movzbl 0x105000,%eax
  100114:	0f b6 c0             	movzbl %al,%eax
  100117:	8d 04 02             	lea    (%edx,%eax,1),%eax
  10011a:	66 89 45 fe          	mov    %ax,-0x2(%ebp)
  10011e:	c7 44 24 04 0e 00 00 	movl   $0xe,0x4(%esp)
  100125:	00 
  100126:	c7 04 24 d4 03 00 00 	movl   $0x3d4,(%esp)
  10012d:	e8 16 04 00 00       	call   100548 <outb>
  100132:	0f b7 45 fe          	movzwl -0x2(%ebp),%eax
  100136:	c1 e8 08             	shr    $0x8,%eax
  100139:	0f b7 c0             	movzwl %ax,%eax
  10013c:	0f b6 c0             	movzbl %al,%eax
  10013f:	89 44 24 04          	mov    %eax,0x4(%esp)
  100143:	c7 04 24 d5 03 00 00 	movl   $0x3d5,(%esp)
  10014a:	e8 f9 03 00 00       	call   100548 <outb>
  10014f:	c7 44 24 04 0f 00 00 	movl   $0xf,0x4(%esp)
  100156:	00 
  100157:	c7 04 24 d4 03 00 00 	movl   $0x3d4,(%esp)
  10015e:	e8 e5 03 00 00       	call   100548 <outb>
  100163:	0f b7 45 fe          	movzwl -0x2(%ebp),%eax
  100167:	0f b6 c0             	movzbl %al,%eax
  10016a:	89 44 24 04          	mov    %eax,0x4(%esp)
  10016e:	c7 04 24 d5 03 00 00 	movl   $0x3d5,(%esp)
  100175:	e8 ce 03 00 00       	call   100548 <outb>
  10017a:	c9                   	leave  
  10017b:	c3                   	ret    

0010017c <scroll>:
  10017c:	55                   	push   %ebp
  10017d:	89 e5                	mov    %esp,%ebp
  10017f:	83 ec 10             	sub    $0x10,%esp
  100182:	c6 45 f9 0f          	movb   $0xf,-0x7(%ebp)
  100186:	0f b6 45 f9          	movzbl -0x7(%ebp),%eax
  10018a:	c1 e0 08             	shl    $0x8,%eax
  10018d:	98                   	cwtl   
  10018e:	83 c8 20             	or     $0x20,%eax
  100191:	98                   	cwtl   
  100192:	66 89 45 fa          	mov    %ax,-0x6(%ebp)
  100196:	0f b6 05 01 50 10 00 	movzbl 0x105001,%eax
  10019d:	3c 18                	cmp    $0x18,%al
  10019f:	76 6f                	jbe    100210 <scroll+0x94>
  1001a1:	c7 45 fc 00 00 00 00 	movl   $0x0,-0x4(%ebp)
  1001a8:	eb 2c                	jmp    1001d6 <scroll+0x5a>
  1001aa:	8b 45 fc             	mov    -0x4(%ebp),%eax
  1001ad:	01 c0                	add    %eax,%eax
  1001af:	89 c2                	mov    %eax,%edx
  1001b1:	a1 00 40 10 00       	mov    0x104000,%eax
  1001b6:	8d 0c 02             	lea    (%edx,%eax,1),%ecx
  1001b9:	8b 45 fc             	mov    -0x4(%ebp),%eax
  1001bc:	01 c0                	add    %eax,%eax
  1001be:	89 c2                	mov    %eax,%edx
  1001c0:	a1 00 40 10 00       	mov    0x104000,%eax
  1001c5:	8d 04 02             	lea    (%edx,%eax,1),%eax
  1001c8:	05 a0 00 00 00       	add    $0xa0,%eax
  1001cd:	0f b7 00             	movzwl (%eax),%eax
  1001d0:	66 89 01             	mov    %ax,(%ecx)
  1001d3:	ff 45 fc             	incl   -0x4(%ebp)
  1001d6:	81 7d fc 7f 07 00 00 	cmpl   $0x77f,-0x4(%ebp)
  1001dd:	7e cb                	jle    1001aa <scroll+0x2e>
  1001df:	c7 45 fc 80 07 00 00 	movl   $0x780,-0x4(%ebp)
  1001e6:	eb 18                	jmp    100200 <scroll+0x84>
  1001e8:	8b 45 fc             	mov    -0x4(%ebp),%eax
  1001eb:	01 c0                	add    %eax,%eax
  1001ed:	89 c2                	mov    %eax,%edx
  1001ef:	a1 00 40 10 00       	mov    0x104000,%eax
  1001f4:	01 c2                	add    %eax,%edx
  1001f6:	0f b7 45 fa          	movzwl -0x6(%ebp),%eax
  1001fa:	66 89 02             	mov    %ax,(%edx)
  1001fd:	ff 45 fc             	incl   -0x4(%ebp)
  100200:	81 7d fc cf 07 00 00 	cmpl   $0x7cf,-0x4(%ebp)
  100207:	7e df                	jle    1001e8 <scroll+0x6c>
  100209:	c6 05 01 50 10 00 18 	movb   $0x18,0x105001
  100210:	c9                   	leave  
  100211:	c3                   	ret    

00100212 <monitor_put>:
  100212:	55                   	push   %ebp
  100213:	89 e5                	mov    %esp,%ebp
  100215:	83 ec 18             	sub    $0x18,%esp
  100218:	8b 45 08             	mov    0x8(%ebp),%eax
  10021b:	88 45 ec             	mov    %al,-0x14(%ebp)
  10021e:	c6 45 f7 00          	movb   $0x0,-0x9(%ebp)
  100222:	c6 45 f8 0f          	movb   $0xf,-0x8(%ebp)
  100226:	0f b6 45 f7          	movzbl -0x9(%ebp),%eax
  10022a:	c1 e0 04             	shl    $0x4,%eax
  10022d:	88 c2                	mov    %al,%dl
  10022f:	0f b6 45 f8          	movzbl -0x8(%ebp),%eax
  100233:	24 0f                	and    $0xf,%al
  100235:	08 d0                	or     %dl,%al
  100237:	88 45 f9             	mov    %al,-0x7(%ebp)
  10023a:	0f b6 45 f9          	movzbl -0x7(%ebp),%eax
  10023e:	c1 e0 08             	shl    $0x8,%eax
  100241:	66 89 45 fa          	mov    %ax,-0x6(%ebp)
  100245:	80 7d ec 08          	cmpb   $0x8,-0x14(%ebp)
  100249:	75 1e                	jne    100269 <monitor_put+0x57>
  10024b:	0f b6 05 00 50 10 00 	movzbl 0x105000,%eax
  100252:	84 c0                	test   %al,%al
  100254:	74 13                	je     100269 <monitor_put+0x57>
  100256:	0f b6 05 00 50 10 00 	movzbl 0x105000,%eax
  10025d:	fe c8                	dec    %al
  10025f:	a2 00 50 10 00       	mov    %al,0x105000
  100264:	e9 a1 00 00 00       	jmp    10030a <monitor_put+0xf8>
  100269:	80 7d ec 09          	cmpb   $0x9,-0x14(%ebp)
  10026d:	75 15                	jne    100284 <monitor_put+0x72>
  10026f:	0f b6 05 00 50 10 00 	movzbl 0x105000,%eax
  100276:	04 08                	add    $0x8,%al
  100278:	24 f8                	and    $0xf8,%al
  10027a:	a2 00 50 10 00       	mov    %al,0x105000
  10027f:	e9 86 00 00 00       	jmp    10030a <monitor_put+0xf8>
  100284:	80 7d ec 0d          	cmpb   $0xd,-0x14(%ebp)
  100288:	75 09                	jne    100293 <monitor_put+0x81>
  10028a:	c6 05 00 50 10 00 00 	movb   $0x0,0x105000
  100291:	eb 77                	jmp    10030a <monitor_put+0xf8>
  100293:	80 7d ec 0a          	cmpb   $0xa,-0x14(%ebp)
  100297:	75 17                	jne    1002b0 <monitor_put+0x9e>
  100299:	c6 05 00 50 10 00 00 	movb   $0x0,0x105000
  1002a0:	0f b6 05 01 50 10 00 	movzbl 0x105001,%eax
  1002a7:	fe c0                	inc    %al
  1002a9:	a2 01 50 10 00       	mov    %al,0x105001
  1002ae:	eb 5a                	jmp    10030a <monitor_put+0xf8>
  1002b0:	80 7d ec 1f          	cmpb   $0x1f,-0x14(%ebp)
  1002b4:	7e 54                	jle    10030a <monitor_put+0xf8>
  1002b6:	0f b6 05 01 50 10 00 	movzbl 0x105001,%eax
  1002bd:	0f b6 d0             	movzbl %al,%edx
  1002c0:	89 d0                	mov    %edx,%eax
  1002c2:	c1 e0 02             	shl    $0x2,%eax
  1002c5:	01 d0                	add    %edx,%eax
  1002c7:	c1 e0 04             	shl    $0x4,%eax
  1002ca:	89 c2                	mov    %eax,%edx
  1002cc:	0f b6 05 00 50 10 00 	movzbl 0x105000,%eax
  1002d3:	0f b6 c0             	movzbl %al,%eax
  1002d6:	8d 04 02             	lea    (%edx,%eax,1),%eax
  1002d9:	01 c0                	add    %eax,%eax
  1002db:	89 c2                	mov    %eax,%edx
  1002dd:	a1 00 40 10 00       	mov    0x104000,%eax
  1002e2:	8d 04 02             	lea    (%edx,%eax,1),%eax
  1002e5:	89 45 fc             	mov    %eax,-0x4(%ebp)
  1002e8:	0f be 55 ec          	movsbl -0x14(%ebp),%edx
  1002ec:	0f bf 45 fa          	movswl -0x6(%ebp),%eax
  1002f0:	09 d0                	or     %edx,%eax
  1002f2:	98                   	cwtl   
  1002f3:	0f b7 d0             	movzwl %ax,%edx
  1002f6:	8b 45 fc             	mov    -0x4(%ebp),%eax
  1002f9:	66 89 10             	mov    %dx,(%eax)
  1002fc:	0f b6 05 00 50 10 00 	movzbl 0x105000,%eax
  100303:	fe c0                	inc    %al
  100305:	a2 00 50 10 00       	mov    %al,0x105000
  10030a:	0f b6 05 00 50 10 00 	movzbl 0x105000,%eax
  100311:	3c 4f                	cmp    $0x4f,%al
  100313:	76 15                	jbe    10032a <monitor_put+0x118>
  100315:	c6 05 00 50 10 00 00 	movb   $0x0,0x105000
  10031c:	0f b6 05 01 50 10 00 	movzbl 0x105001,%eax
  100323:	fe c0                	inc    %al
  100325:	a2 01 50 10 00       	mov    %al,0x105001
  10032a:	e8 4d fe ff ff       	call   10017c <scroll>
  10032f:	e8 bc fd ff ff       	call   1000f0 <move_cursor>
  100334:	c9                   	leave  
  100335:	c3                   	ret    

00100336 <monitor_clear>:
  100336:	55                   	push   %ebp
  100337:	89 e5                	mov    %esp,%ebp
  100339:	83 ec 18             	sub    $0x18,%esp
  10033c:	c6 45 f9 0f          	movb   $0xf,-0x7(%ebp)
  100340:	0f b6 45 f9          	movzbl -0x7(%ebp),%eax
  100344:	c1 e0 08             	shl    $0x8,%eax
  100347:	98                   	cwtl   
  100348:	83 c8 20             	or     $0x20,%eax
  10034b:	98                   	cwtl   
  10034c:	66 89 45 fa          	mov    %ax,-0x6(%ebp)
  100350:	c7 45 fc 00 00 00 00 	movl   $0x0,-0x4(%ebp)
  100357:	eb 18                	jmp    100371 <monitor_clear+0x3b>
  100359:	8b 45 fc             	mov    -0x4(%ebp),%eax
  10035c:	01 c0                	add    %eax,%eax
  10035e:	89 c2                	mov    %eax,%edx
  100360:	a1 00 40 10 00       	mov    0x104000,%eax
  100365:	01 c2                	add    %eax,%edx
  100367:	0f b7 45 fa          	movzwl -0x6(%ebp),%eax
  10036b:	66 89 02             	mov    %ax,(%edx)
  10036e:	ff 45 fc             	incl   -0x4(%ebp)
  100371:	81 7d fc cf 07 00 00 	cmpl   $0x7cf,-0x4(%ebp)
  100378:	7e df                	jle    100359 <monitor_clear+0x23>
  10037a:	c6 05 00 50 10 00 00 	movb   $0x0,0x105000
  100381:	c6 05 01 50 10 00 00 	movb   $0x0,0x105001
  100388:	e8 63 fd ff ff       	call   1000f0 <move_cursor>
  10038d:	c9                   	leave  
  10038e:	c3                   	ret    

0010038f <monitor_write>:
  10038f:	55                   	push   %ebp
  100390:	89 e5                	mov    %esp,%ebp
  100392:	83 ec 18             	sub    $0x18,%esp
  100395:	c7 45 fc 00 00 00 00 	movl   $0x0,-0x4(%ebp)
  10039c:	eb 17                	jmp    1003b5 <monitor_write+0x26>
  10039e:	8b 45 fc             	mov    -0x4(%ebp),%eax
  1003a1:	03 45 08             	add    0x8(%ebp),%eax
  1003a4:	0f b6 00             	movzbl (%eax),%eax
  1003a7:	0f be c0             	movsbl %al,%eax
  1003aa:	ff 45 fc             	incl   -0x4(%ebp)
  1003ad:	89 04 24             	mov    %eax,(%esp)
  1003b0:	e8 5d fe ff ff       	call   100212 <monitor_put>
  1003b5:	8b 45 fc             	mov    -0x4(%ebp),%eax
  1003b8:	03 45 08             	add    0x8(%ebp),%eax
  1003bb:	0f b6 00             	movzbl (%eax),%eax
  1003be:	84 c0                	test   %al,%al
  1003c0:	75 dc                	jne    10039e <monitor_write+0xf>
  1003c2:	c9                   	leave  
  1003c3:	c3                   	ret    

001003c4 <monitor_write_hex>:
  1003c4:	55                   	push   %ebp
  1003c5:	89 e5                	mov    %esp,%ebp
  1003c7:	83 ec 18             	sub    $0x18,%esp
  1003ca:	c7 04 24 51 40 10 00 	movl   $0x104051,(%esp)
  1003d1:	e8 b9 ff ff ff       	call   10038f <monitor_write>
  1003d6:	c6 45 fb 01          	movb   $0x1,-0x5(%ebp)
  1003da:	c7 45 fc 1c 00 00 00 	movl   $0x1c,-0x4(%ebp)
  1003e1:	eb 4e                	jmp    100431 <monitor_write_hex+0x6d>
  1003e3:	8b 4d fc             	mov    -0x4(%ebp),%ecx
  1003e6:	8b 45 08             	mov    0x8(%ebp),%eax
  1003e9:	d3 e8                	shr    %cl,%eax
  1003eb:	83 e0 0f             	and    $0xf,%eax
  1003ee:	89 45 f4             	mov    %eax,-0xc(%ebp)
  1003f1:	83 7d f4 00          	cmpl   $0x0,-0xc(%ebp)
  1003f5:	75 06                	jne    1003fd <monitor_write_hex+0x39>
  1003f7:	80 7d fb 00          	cmpb   $0x0,-0x5(%ebp)
  1003fb:	75 30                	jne    10042d <monitor_write_hex+0x69>
  1003fd:	83 7d f4 09          	cmpl   $0x9,-0xc(%ebp)
  100401:	7e 16                	jle    100419 <monitor_write_hex+0x55>
  100403:	c6 45 fb 00          	movb   $0x0,-0x5(%ebp)
  100407:	8b 45 f4             	mov    -0xc(%ebp),%eax
  10040a:	04 57                	add    $0x57,%al
  10040c:	0f be c0             	movsbl %al,%eax
  10040f:	89 04 24             	mov    %eax,(%esp)
  100412:	e8 fb fd ff ff       	call   100212 <monitor_put>
  100417:	eb 14                	jmp    10042d <monitor_write_hex+0x69>
  100419:	c6 45 fb 00          	movb   $0x0,-0x5(%ebp)
  10041d:	8b 45 f4             	mov    -0xc(%ebp),%eax
  100420:	04 30                	add    $0x30,%al
  100422:	0f be c0             	movsbl %al,%eax
  100425:	89 04 24             	mov    %eax,(%esp)
  100428:	e8 e5 fd ff ff       	call   100212 <monitor_put>
  10042d:	83 6d fc 04          	subl   $0x4,-0x4(%ebp)
  100431:	83 7d fc 00          	cmpl   $0x0,-0x4(%ebp)
  100435:	7f ac                	jg     1003e3 <monitor_write_hex+0x1f>
  100437:	8b 45 08             	mov    0x8(%ebp),%eax
  10043a:	83 e0 0f             	and    $0xf,%eax
  10043d:	89 45 f4             	mov    %eax,-0xc(%ebp)
  100440:	83 7d f4 09          	cmpl   $0x9,-0xc(%ebp)
  100444:	7e 12                	jle    100458 <monitor_write_hex+0x94>
  100446:	8b 45 f4             	mov    -0xc(%ebp),%eax
  100449:	04 57                	add    $0x57,%al
  10044b:	0f be c0             	movsbl %al,%eax
  10044e:	89 04 24             	mov    %eax,(%esp)
  100451:	e8 bc fd ff ff       	call   100212 <monitor_put>
  100456:	eb 10                	jmp    100468 <monitor_write_hex+0xa4>
  100458:	8b 45 f4             	mov    -0xc(%ebp),%eax
  10045b:	04 30                	add    $0x30,%al
  10045d:	0f be c0             	movsbl %al,%eax
  100460:	89 04 24             	mov    %eax,(%esp)
  100463:	e8 aa fd ff ff       	call   100212 <monitor_put>
  100468:	c9                   	leave  
  100469:	c3                   	ret    

0010046a <monitor_write_dec>:
  10046a:	55                   	push   %ebp
  10046b:	89 e5                	mov    %esp,%ebp
  10046d:	56                   	push   %esi
  10046e:	53                   	push   %ebx
  10046f:	83 ec 60             	sub    $0x60,%esp
  100472:	83 7d 08 00          	cmpl   $0x0,0x8(%ebp)
  100476:	75 11                	jne    100489 <monitor_write_dec+0x1f>
  100478:	c7 04 24 30 00 00 00 	movl   $0x30,(%esp)
  10047f:	e8 8e fd ff ff       	call   100212 <monitor_put>
  100484:	e9 b7 00 00 00       	jmp    100540 <monitor_write_dec+0xd6>
  100489:	8b 45 08             	mov    0x8(%ebp),%eax
  10048c:	89 45 ec             	mov    %eax,-0x14(%ebp)
  10048f:	c7 45 f0 00 00 00 00 	movl   $0x0,-0x10(%ebp)
  100496:	eb 60                	jmp    1004f8 <monitor_write_dec+0x8e>
  100498:	8b 5d f0             	mov    -0x10(%ebp),%ebx
  10049b:	8b 4d ec             	mov    -0x14(%ebp),%ecx
  10049e:	c7 45 a0 67 66 66 66 	movl   $0x66666667,-0x60(%ebp)
  1004a5:	8b 45 a0             	mov    -0x60(%ebp),%eax
  1004a8:	f7 e9                	imul   %ecx
  1004aa:	c1 fa 02             	sar    $0x2,%edx
  1004ad:	89 c8                	mov    %ecx,%eax
  1004af:	c1 f8 1f             	sar    $0x1f,%eax
  1004b2:	89 d6                	mov    %edx,%esi
  1004b4:	29 c6                	sub    %eax,%esi
  1004b6:	89 75 a4             	mov    %esi,-0x5c(%ebp)
  1004b9:	8b 45 a4             	mov    -0x5c(%ebp),%eax
  1004bc:	c1 e0 02             	shl    $0x2,%eax
  1004bf:	03 45 a4             	add    -0x5c(%ebp),%eax
  1004c2:	01 c0                	add    %eax,%eax
  1004c4:	89 ca                	mov    %ecx,%edx
  1004c6:	29 c2                	sub    %eax,%edx
  1004c8:	89 55 a4             	mov    %edx,-0x5c(%ebp)
  1004cb:	0f b6 45 a4          	movzbl -0x5c(%ebp),%eax
  1004cf:	04 30                	add    $0x30,%al
  1004d1:	88 44 1d cc          	mov    %al,-0x34(%ebp,%ebx,1)
  1004d5:	8b 4d ec             	mov    -0x14(%ebp),%ecx
  1004d8:	c7 45 a0 67 66 66 66 	movl   $0x66666667,-0x60(%ebp)
  1004df:	8b 45 a0             	mov    -0x60(%ebp),%eax
  1004e2:	f7 e9                	imul   %ecx
  1004e4:	c1 fa 02             	sar    $0x2,%edx
  1004e7:	89 c8                	mov    %ecx,%eax
  1004e9:	c1 f8 1f             	sar    $0x1f,%eax
  1004ec:	89 d1                	mov    %edx,%ecx
  1004ee:	29 c1                	sub    %eax,%ecx
  1004f0:	89 c8                	mov    %ecx,%eax
  1004f2:	89 45 ec             	mov    %eax,-0x14(%ebp)
  1004f5:	ff 45 f0             	incl   -0x10(%ebp)
  1004f8:	83 7d ec 00          	cmpl   $0x0,-0x14(%ebp)
  1004fc:	7f 9a                	jg     100498 <monitor_write_dec+0x2e>
  1004fe:	8b 45 f0             	mov    -0x10(%ebp),%eax
  100501:	c6 44 05 cc 00       	movb   $0x0,-0x34(%ebp,%eax,1)
  100506:	8b 45 f0             	mov    -0x10(%ebp),%eax
  100509:	c6 44 05 ac 00       	movb   $0x0,-0x54(%ebp,%eax,1)
  10050e:	ff 4d f0             	decl   -0x10(%ebp)
  100511:	c7 45 f4 00 00 00 00 	movl   $0x0,-0xc(%ebp)
  100518:	eb 15                	jmp    10052f <monitor_write_dec+0xc5>
  10051a:	8b 45 f0             	mov    -0x10(%ebp),%eax
  10051d:	8b 55 f4             	mov    -0xc(%ebp),%edx
  100520:	0f b6 54 15 cc       	movzbl -0x34(%ebp,%edx,1),%edx
  100525:	88 54 05 ac          	mov    %dl,-0x54(%ebp,%eax,1)
  100529:	ff 4d f0             	decl   -0x10(%ebp)
  10052c:	ff 45 f4             	incl   -0xc(%ebp)
  10052f:	83 7d f0 00          	cmpl   $0x0,-0x10(%ebp)
  100533:	79 e5                	jns    10051a <monitor_write_dec+0xb0>
  100535:	8d 45 ac             	lea    -0x54(%ebp),%eax
  100538:	89 04 24             	mov    %eax,(%esp)
  10053b:	e8 4f fe ff ff       	call   10038f <monitor_write>
  100540:	83 c4 60             	add    $0x60,%esp
  100543:	5b                   	pop    %ebx
  100544:	5e                   	pop    %esi
  100545:	5d                   	pop    %ebp
  100546:	c3                   	ret    
	...

00100548 <outb>:
  100548:	55                   	push   %ebp
  100549:	89 e5                	mov    %esp,%ebp
  10054b:	83 ec 08             	sub    $0x8,%esp
  10054e:	8b 45 08             	mov    0x8(%ebp),%eax
  100551:	8b 55 0c             	mov    0xc(%ebp),%edx
  100554:	66 89 45 fc          	mov    %ax,-0x4(%ebp)
  100558:	88 55 f8             	mov    %dl,-0x8(%ebp)
  10055b:	8b 55 fc             	mov    -0x4(%ebp),%edx
  10055e:	0f b6 45 f8          	movzbl -0x8(%ebp),%eax
  100562:	ee                   	out    %al,(%dx)
  100563:	c9                   	leave  
  100564:	c3                   	ret    

00100565 <inb>:
  100565:	55                   	push   %ebp
  100566:	89 e5                	mov    %esp,%ebp
  100568:	83 ec 14             	sub    $0x14,%esp
  10056b:	8b 45 08             	mov    0x8(%ebp),%eax
  10056e:	66 89 45 ec          	mov    %ax,-0x14(%ebp)
  100572:	8b 55 ec             	mov    -0x14(%ebp),%edx
  100575:	ec                   	in     (%dx),%al
  100576:	88 45 ff             	mov    %al,-0x1(%ebp)
  100579:	0f b6 45 ff          	movzbl -0x1(%ebp),%eax
  10057d:	c9                   	leave  
  10057e:	c3                   	ret    

0010057f <inw>:
  10057f:	55                   	push   %ebp
  100580:	89 e5                	mov    %esp,%ebp
  100582:	83 ec 14             	sub    $0x14,%esp
  100585:	8b 45 08             	mov    0x8(%ebp),%eax
  100588:	66 89 45 ec          	mov    %ax,-0x14(%ebp)
  10058c:	8b 55 ec             	mov    -0x14(%ebp),%edx
  10058f:	66 ed                	in     (%dx),%ax
  100591:	66 89 45 fe          	mov    %ax,-0x2(%ebp)
  100595:	0f b7 45 fe          	movzwl -0x2(%ebp),%eax
  100599:	c9                   	leave  
  10059a:	c3                   	ret    

0010059b <memcpy>:
  10059b:	55                   	push   %ebp
  10059c:	89 e5                	mov    %esp,%ebp
  10059e:	83 ec 10             	sub    $0x10,%esp
  1005a1:	8b 45 0c             	mov    0xc(%ebp),%eax
  1005a4:	89 45 f8             	mov    %eax,-0x8(%ebp)
  1005a7:	8b 45 08             	mov    0x8(%ebp),%eax
  1005aa:	89 45 fc             	mov    %eax,-0x4(%ebp)
  1005ad:	eb 14                	jmp    1005c3 <memcpy+0x28>
  1005af:	8b 45 f8             	mov    -0x8(%ebp),%eax
  1005b2:	0f b6 10             	movzbl (%eax),%edx
  1005b5:	8b 45 fc             	mov    -0x4(%ebp),%eax
  1005b8:	88 10                	mov    %dl,(%eax)
  1005ba:	ff 45 fc             	incl   -0x4(%ebp)
  1005bd:	ff 45 f8             	incl   -0x8(%ebp)
  1005c0:	ff 4d 10             	decl   0x10(%ebp)
  1005c3:	83 7d 10 00          	cmpl   $0x0,0x10(%ebp)
  1005c7:	75 e6                	jne    1005af <memcpy+0x14>
  1005c9:	c9                   	leave  
  1005ca:	c3                   	ret    

001005cb <memset>:
  1005cb:	55                   	push   %ebp
  1005cc:	89 e5                	mov    %esp,%ebp
  1005ce:	83 ec 14             	sub    $0x14,%esp
  1005d1:	8b 45 0c             	mov    0xc(%ebp),%eax
  1005d4:	88 45 ec             	mov    %al,-0x14(%ebp)
  1005d7:	8b 45 08             	mov    0x8(%ebp),%eax
  1005da:	89 45 fc             	mov    %eax,-0x4(%ebp)
  1005dd:	eb 0f                	jmp    1005ee <memset+0x23>
  1005df:	8b 55 fc             	mov    -0x4(%ebp),%edx
  1005e2:	0f b6 45 ec          	movzbl -0x14(%ebp),%eax
  1005e6:	88 02                	mov    %al,(%edx)
  1005e8:	ff 45 fc             	incl   -0x4(%ebp)
  1005eb:	ff 4d 10             	decl   0x10(%ebp)
  1005ee:	83 7d 10 00          	cmpl   $0x0,0x10(%ebp)
  1005f2:	75 eb                	jne    1005df <memset+0x14>
  1005f4:	c9                   	leave  
  1005f5:	c3                   	ret    

001005f6 <strcmp>:
  1005f6:	55                   	push   %ebp
  1005f7:	89 e5                	mov    %esp,%ebp
  1005f9:	83 ec 10             	sub    $0x10,%esp
  1005fc:	c7 45 f8 00 00 00 00 	movl   $0x0,-0x8(%ebp)
  100603:	c7 45 fc 00 00 00 00 	movl   $0x0,-0x4(%ebp)
  10060a:	eb 22                	jmp    10062e <strcmp+0x38>
  10060c:	8b 45 f8             	mov    -0x8(%ebp),%eax
  10060f:	03 45 08             	add    0x8(%ebp),%eax
  100612:	0f b6 10             	movzbl (%eax),%edx
  100615:	8b 45 f8             	mov    -0x8(%ebp),%eax
  100618:	03 45 0c             	add    0xc(%ebp),%eax
  10061b:	0f b6 00             	movzbl (%eax),%eax
  10061e:	38 c2                	cmp    %al,%dl
  100620:	74 09                	je     10062b <strcmp+0x35>
  100622:	c7 45 fc 01 00 00 00 	movl   $0x1,-0x4(%ebp)
  100629:	eb 1d                	jmp    100648 <strcmp+0x52>
  10062b:	ff 45 f8             	incl   -0x8(%ebp)
  10062e:	8b 45 f8             	mov    -0x8(%ebp),%eax
  100631:	03 45 08             	add    0x8(%ebp),%eax
  100634:	0f b6 00             	movzbl (%eax),%eax
  100637:	84 c0                	test   %al,%al
  100639:	74 0d                	je     100648 <strcmp+0x52>
  10063b:	8b 45 f8             	mov    -0x8(%ebp),%eax
  10063e:	03 45 0c             	add    0xc(%ebp),%eax
  100641:	0f b6 00             	movzbl (%eax),%eax
  100644:	84 c0                	test   %al,%al
  100646:	75 c4                	jne    10060c <strcmp+0x16>
  100648:	8b 45 f8             	mov    -0x8(%ebp),%eax
  10064b:	03 45 08             	add    0x8(%ebp),%eax
  10064e:	0f b6 00             	movzbl (%eax),%eax
  100651:	84 c0                	test   %al,%al
  100653:	75 0d                	jne    100662 <strcmp+0x6c>
  100655:	8b 45 f8             	mov    -0x8(%ebp),%eax
  100658:	03 45 0c             	add    0xc(%ebp),%eax
  10065b:	0f b6 00             	movzbl (%eax),%eax
  10065e:	84 c0                	test   %al,%al
  100660:	75 1a                	jne    10067c <strcmp+0x86>
  100662:	8b 45 f8             	mov    -0x8(%ebp),%eax
  100665:	03 45 08             	add    0x8(%ebp),%eax
  100668:	0f b6 00             	movzbl (%eax),%eax
  10066b:	84 c0                	test   %al,%al
  10066d:	74 14                	je     100683 <strcmp+0x8d>
  10066f:	8b 45 f8             	mov    -0x8(%ebp),%eax
  100672:	03 45 0c             	add    0xc(%ebp),%eax
  100675:	0f b6 00             	movzbl (%eax),%eax
  100678:	84 c0                	test   %al,%al
  10067a:	75 07                	jne    100683 <strcmp+0x8d>
  10067c:	c7 45 fc 01 00 00 00 	movl   $0x1,-0x4(%ebp)
  100683:	8b 45 fc             	mov    -0x4(%ebp),%eax
  100686:	c9                   	leave  
  100687:	c3                   	ret    

00100688 <strcpy>:
  100688:	55                   	push   %ebp
  100689:	89 e5                	mov    %esp,%ebp
  10068b:	8b 45 0c             	mov    0xc(%ebp),%eax
  10068e:	0f b6 10             	movzbl (%eax),%edx
  100691:	8b 45 08             	mov    0x8(%ebp),%eax
  100694:	88 10                	mov    %dl,(%eax)
  100696:	ff 45 08             	incl   0x8(%ebp)
  100699:	ff 45 0c             	incl   0xc(%ebp)
  10069c:	8b 45 0c             	mov    0xc(%ebp),%eax
  10069f:	0f b6 00             	movzbl (%eax),%eax
  1006a2:	84 c0                	test   %al,%al
  1006a4:	75 e5                	jne    10068b <strcpy+0x3>
  1006a6:	5d                   	pop    %ebp
  1006a7:	c3                   	ret    

001006a8 <strcat>:
  1006a8:	55                   	push   %ebp
  1006a9:	89 e5                	mov    %esp,%ebp
  1006ab:	eb 0e                	jmp    1006bb <strcat+0x13>
  1006ad:	8b 45 08             	mov    0x8(%ebp),%eax
  1006b0:	0f b6 10             	movzbl (%eax),%edx
  1006b3:	8b 45 08             	mov    0x8(%ebp),%eax
  1006b6:	88 10                	mov    %dl,(%eax)
  1006b8:	ff 45 08             	incl   0x8(%ebp)
  1006bb:	8b 45 08             	mov    0x8(%ebp),%eax
  1006be:	0f b6 00             	movzbl (%eax),%eax
  1006c1:	84 c0                	test   %al,%al
  1006c3:	75 e8                	jne    1006ad <strcat+0x5>
  1006c5:	8b 45 0c             	mov    0xc(%ebp),%eax
  1006c8:	0f b6 10             	movzbl (%eax),%edx
  1006cb:	8b 45 08             	mov    0x8(%ebp),%eax
  1006ce:	88 10                	mov    %dl,(%eax)
  1006d0:	ff 45 08             	incl   0x8(%ebp)
  1006d3:	ff 45 0c             	incl   0xc(%ebp)
  1006d6:	8b 45 0c             	mov    0xc(%ebp),%eax
  1006d9:	0f b6 00             	movzbl (%eax),%eax
  1006dc:	84 c0                	test   %al,%al
  1006de:	75 e5                	jne    1006c5 <strcat+0x1d>
  1006e0:	8b 45 08             	mov    0x8(%ebp),%eax
  1006e3:	5d                   	pop    %ebp
  1006e4:	c3                   	ret    

001006e5 <strlen>:
  1006e5:	55                   	push   %ebp
  1006e6:	89 e5                	mov    %esp,%ebp
  1006e8:	83 ec 10             	sub    $0x10,%esp
  1006eb:	c7 45 fc 00 00 00 00 	movl   $0x0,-0x4(%ebp)
  1006f2:	eb 03                	jmp    1006f7 <strlen+0x12>
  1006f4:	ff 45 fc             	incl   -0x4(%ebp)
  1006f7:	8b 45 08             	mov    0x8(%ebp),%eax
  1006fa:	0f b6 00             	movzbl (%eax),%eax
  1006fd:	84 c0                	test   %al,%al
  1006ff:	0f 95 c0             	setne  %al
  100702:	ff 45 08             	incl   0x8(%ebp)
  100705:	84 c0                	test   %al,%al
  100707:	75 eb                	jne    1006f4 <strlen+0xf>
  100709:	8b 45 fc             	mov    -0x4(%ebp),%eax
  10070c:	c9                   	leave  
  10070d:	c3                   	ret    

0010070e <panic>:
  10070e:	55                   	push   %ebp
  10070f:	89 e5                	mov    %esp,%ebp
  100711:	83 ec 08             	sub    $0x8,%esp
  100714:	fa                   	cli    
  100715:	c7 04 24 54 40 10 00 	movl   $0x104054,(%esp)
  10071c:	e8 6e fc ff ff       	call   10038f <monitor_write>
  100721:	8b 45 08             	mov    0x8(%ebp),%eax
  100724:	89 04 24             	mov    %eax,(%esp)
  100727:	e8 63 fc ff ff       	call   10038f <monitor_write>
  10072c:	c7 04 24 5b 40 10 00 	movl   $0x10405b,(%esp)
  100733:	e8 57 fc ff ff       	call   10038f <monitor_write>
  100738:	8b 45 0c             	mov    0xc(%ebp),%eax
  10073b:	89 04 24             	mov    %eax,(%esp)
  10073e:	e8 4c fc ff ff       	call   10038f <monitor_write>
  100743:	c7 04 24 61 40 10 00 	movl   $0x104061,(%esp)
  10074a:	e8 40 fc ff ff       	call   10038f <monitor_write>
  10074f:	8b 45 10             	mov    0x10(%ebp),%eax
  100752:	89 04 24             	mov    %eax,(%esp)
  100755:	e8 10 fd ff ff       	call   10046a <monitor_write_dec>
  10075a:	c7 04 24 63 40 10 00 	movl   $0x104063,(%esp)
  100761:	e8 29 fc ff ff       	call   10038f <monitor_write>
  100766:	eb fe                	jmp    100766 <panic+0x58>

00100768 <panic_assert>:
  100768:	55                   	push   %ebp
  100769:	89 e5                	mov    %esp,%ebp
  10076b:	83 ec 08             	sub    $0x8,%esp
  10076e:	fa                   	cli    
  10076f:	c7 04 24 65 40 10 00 	movl   $0x104065,(%esp)
  100776:	e8 14 fc ff ff       	call   10038f <monitor_write>
  10077b:	8b 45 10             	mov    0x10(%ebp),%eax
  10077e:	89 04 24             	mov    %eax,(%esp)
  100781:	e8 09 fc ff ff       	call   10038f <monitor_write>
  100786:	c7 04 24 5b 40 10 00 	movl   $0x10405b,(%esp)
  10078d:	e8 fd fb ff ff       	call   10038f <monitor_write>
  100792:	8b 45 08             	mov    0x8(%ebp),%eax
  100795:	89 04 24             	mov    %eax,(%esp)
  100798:	e8 f2 fb ff ff       	call   10038f <monitor_write>
  10079d:	c7 04 24 61 40 10 00 	movl   $0x104061,(%esp)
  1007a4:	e8 e6 fb ff ff       	call   10038f <monitor_write>
  1007a9:	8b 45 0c             	mov    0xc(%ebp),%eax
  1007ac:	89 04 24             	mov    %eax,(%esp)
  1007af:	e8 b6 fc ff ff       	call   10046a <monitor_write_dec>
  1007b4:	c7 04 24 63 40 10 00 	movl   $0x104063,(%esp)
  1007bb:	e8 cf fb ff ff       	call   10038f <monitor_write>
  1007c0:	eb fe                	jmp    1007c0 <panic_assert+0x58>
	...

001007c4 <init_descriptor_tables>:
  1007c4:	55                   	push   %ebp
  1007c5:	89 e5                	mov    %esp,%ebp
  1007c7:	83 ec 18             	sub    $0x18,%esp
  1007ca:	e8 23 00 00 00       	call   1007f2 <init_gdt>
  1007cf:	e8 9e 02 00 00       	call   100a72 <init_idt>
  1007d4:	c7 44 24 08 00 04 00 	movl   $0x400,0x8(%esp)
  1007db:	00 
  1007dc:	c7 44 24 04 00 00 00 	movl   $0x0,0x4(%esp)
  1007e3:	00 
  1007e4:	c7 04 24 20 69 10 00 	movl   $0x106920,(%esp)
  1007eb:	e8 db fd ff ff       	call   1005cb <memset>
  1007f0:	c9                   	leave  
  1007f1:	c3                   	ret    

001007f2 <init_gdt>:
  1007f2:	55                   	push   %ebp
  1007f3:	89 e5                	mov    %esp,%ebp
  1007f5:	83 ec 18             	sub    $0x18,%esp
  1007f8:	66 c7 05 00 69 10 00 	movw   $0x2f,0x106900
  1007ff:	2f 00 
  100801:	b8 40 60 10 00       	mov    $0x106040,%eax
  100806:	a3 02 69 10 00       	mov    %eax,0x106902
  10080b:	c7 44 24 10 00 00 00 	movl   $0x0,0x10(%esp)
  100812:	00 
  100813:	c7 44 24 0c 00 00 00 	movl   $0x0,0xc(%esp)
  10081a:	00 
  10081b:	c7 44 24 08 00 00 00 	movl   $0x0,0x8(%esp)
  100822:	00 
  100823:	c7 44 24 04 00 00 00 	movl   $0x0,0x4(%esp)
  10082a:	00 
  10082b:	c7 04 24 00 00 00 00 	movl   $0x0,(%esp)
  100832:	e8 e0 00 00 00       	call   100917 <gdt_set_gate>
  100837:	c7 44 24 10 cf 00 00 	movl   $0xcf,0x10(%esp)
  10083e:	00 
  10083f:	c7 44 24 0c 9a 00 00 	movl   $0x9a,0xc(%esp)
  100846:	00 
  100847:	c7 44 24 08 ff ff ff 	movl   $0xffffffff,0x8(%esp)
  10084e:	ff 
  10084f:	c7 44 24 04 00 00 00 	movl   $0x0,0x4(%esp)
  100856:	00 
  100857:	c7 04 24 01 00 00 00 	movl   $0x1,(%esp)
  10085e:	e8 b4 00 00 00       	call   100917 <gdt_set_gate>
  100863:	c7 44 24 10 cf 00 00 	movl   $0xcf,0x10(%esp)
  10086a:	00 
  10086b:	c7 44 24 0c 92 00 00 	movl   $0x92,0xc(%esp)
  100872:	00 
  100873:	c7 44 24 08 ff ff ff 	movl   $0xffffffff,0x8(%esp)
  10087a:	ff 
  10087b:	c7 44 24 04 00 00 00 	movl   $0x0,0x4(%esp)
  100882:	00 
  100883:	c7 04 24 02 00 00 00 	movl   $0x2,(%esp)
  10088a:	e8 88 00 00 00       	call   100917 <gdt_set_gate>
  10088f:	c7 44 24 10 cf 00 00 	movl   $0xcf,0x10(%esp)
  100896:	00 
  100897:	c7 44 24 0c fa 00 00 	movl   $0xfa,0xc(%esp)
  10089e:	00 
  10089f:	c7 44 24 08 ff ff ff 	movl   $0xffffffff,0x8(%esp)
  1008a6:	ff 
  1008a7:	c7 44 24 04 00 00 00 	movl   $0x0,0x4(%esp)
  1008ae:	00 
  1008af:	c7 04 24 03 00 00 00 	movl   $0x3,(%esp)
  1008b6:	e8 5c 00 00 00       	call   100917 <gdt_set_gate>
  1008bb:	c7 44 24 10 cf 00 00 	movl   $0xcf,0x10(%esp)
  1008c2:	00 
  1008c3:	c7 44 24 0c f2 00 00 	movl   $0xf2,0xc(%esp)
  1008ca:	00 
  1008cb:	c7 44 24 08 ff ff ff 	movl   $0xffffffff,0x8(%esp)
  1008d2:	ff 
  1008d3:	c7 44 24 04 00 00 00 	movl   $0x0,0x4(%esp)
  1008da:	00 
  1008db:	c7 04 24 04 00 00 00 	movl   $0x4,(%esp)
  1008e2:	e8 30 00 00 00       	call   100917 <gdt_set_gate>
  1008e7:	c7 44 24 08 00 00 00 	movl   $0x0,0x8(%esp)
  1008ee:	00 
  1008ef:	c7 44 24 04 10 00 00 	movl   $0x10,0x4(%esp)
  1008f6:	00 
  1008f7:	c7 04 24 05 00 00 00 	movl   $0x5,(%esp)
  1008fe:	e8 b0 00 00 00       	call   1009b3 <write_tss>
  100903:	b8 00 69 10 00       	mov    $0x106900,%eax
  100908:	89 04 24             	mov    %eax,(%esp)
  10090b:	e8 70 0d 00 00       	call   101680 <gdt_flush>
  100910:	e8 90 0d 00 00       	call   1016a5 <tss_flush>
  100915:	c9                   	leave  
  100916:	c3                   	ret    

00100917 <gdt_set_gate>:
  100917:	55                   	push   %ebp
  100918:	89 e5                	mov    %esp,%ebp
  10091a:	53                   	push   %ebx
  10091b:	83 ec 08             	sub    $0x8,%esp
  10091e:	8b 45 14             	mov    0x14(%ebp),%eax
  100921:	8b 55 18             	mov    0x18(%ebp),%edx
  100924:	88 45 f8             	mov    %al,-0x8(%ebp)
  100927:	88 55 f4             	mov    %dl,-0xc(%ebp)
  10092a:	8b 55 08             	mov    0x8(%ebp),%edx
  10092d:	8b 45 0c             	mov    0xc(%ebp),%eax
  100930:	0f b7 c0             	movzwl %ax,%eax
  100933:	66 89 04 d5 42 60 10 	mov    %ax,0x106042(,%edx,8)
  10093a:	00 
  10093b:	8b 55 08             	mov    0x8(%ebp),%edx
  10093e:	8b 45 0c             	mov    0xc(%ebp),%eax
  100941:	c1 e8 10             	shr    $0x10,%eax
  100944:	88 04 d5 44 60 10 00 	mov    %al,0x106044(,%edx,8)
  10094b:	8b 55 08             	mov    0x8(%ebp),%edx
  10094e:	8b 45 0c             	mov    0xc(%ebp),%eax
  100951:	c1 e8 18             	shr    $0x18,%eax
  100954:	88 04 d5 47 60 10 00 	mov    %al,0x106047(,%edx,8)
  10095b:	8b 55 08             	mov    0x8(%ebp),%edx
  10095e:	8b 45 10             	mov    0x10(%ebp),%eax
  100961:	0f b7 c0             	movzwl %ax,%eax
  100964:	66 89 04 d5 40 60 10 	mov    %ax,0x106040(,%edx,8)
  10096b:	00 
  10096c:	8b 55 08             	mov    0x8(%ebp),%edx
  10096f:	8b 45 10             	mov    0x10(%ebp),%eax
  100972:	c1 e8 10             	shr    $0x10,%eax
  100975:	24 0f                	and    $0xf,%al
  100977:	88 04 d5 46 60 10 00 	mov    %al,0x106046(,%edx,8)
  10097e:	8b 5d 08             	mov    0x8(%ebp),%ebx
  100981:	8b 45 08             	mov    0x8(%ebp),%eax
  100984:	0f b6 04 c5 46 60 10 	movzbl 0x106046(,%eax,8),%eax
  10098b:	00 
  10098c:	88 c1                	mov    %al,%cl
  10098e:	0f b6 55 f4          	movzbl -0xc(%ebp),%edx
  100992:	b0 f0                	mov    $0xf0,%al
  100994:	20 d0                	and    %dl,%al
  100996:	08 c8                	or     %cl,%al
  100998:	88 04 dd 46 60 10 00 	mov    %al,0x106046(,%ebx,8)
  10099f:	8b 55 08             	mov    0x8(%ebp),%edx
  1009a2:	0f b6 45 f8          	movzbl -0x8(%ebp),%eax
  1009a6:	88 04 d5 45 60 10 00 	mov    %al,0x106045(,%edx,8)
  1009ad:	83 c4 08             	add    $0x8,%esp
  1009b0:	5b                   	pop    %ebx
  1009b1:	5d                   	pop    %ebp
  1009b2:	c3                   	ret    

001009b3 <write_tss>:
  1009b3:	55                   	push   %ebp
  1009b4:	89 e5                	mov    %esp,%ebp
  1009b6:	83 ec 28             	sub    $0x28,%esp
  1009b9:	8b 45 0c             	mov    0xc(%ebp),%eax
  1009bc:	66 89 45 ec          	mov    %ax,-0x14(%ebp)
  1009c0:	b8 80 60 10 00       	mov    $0x106080,%eax
  1009c5:	89 45 f8             	mov    %eax,-0x8(%ebp)
  1009c8:	8b 45 f8             	mov    -0x8(%ebp),%eax
  1009cb:	83 c0 68             	add    $0x68,%eax
  1009ce:	89 45 fc             	mov    %eax,-0x4(%ebp)
  1009d1:	c7 44 24 10 00 00 00 	movl   $0x0,0x10(%esp)
  1009d8:	00 
  1009d9:	c7 44 24 0c e9 00 00 	movl   $0xe9,0xc(%esp)
  1009e0:	00 
  1009e1:	8b 45 fc             	mov    -0x4(%ebp),%eax
  1009e4:	89 44 24 08          	mov    %eax,0x8(%esp)
  1009e8:	8b 45 f8             	mov    -0x8(%ebp),%eax
  1009eb:	89 44 24 04          	mov    %eax,0x4(%esp)
  1009ef:	8b 45 08             	mov    0x8(%ebp),%eax
  1009f2:	89 04 24             	mov    %eax,(%esp)
  1009f5:	e8 1d ff ff ff       	call   100917 <gdt_set_gate>
  1009fa:	c7 44 24 08 68 00 00 	movl   $0x68,0x8(%esp)
  100a01:	00 
  100a02:	c7 44 24 04 00 00 00 	movl   $0x0,0x4(%esp)
  100a09:	00 
  100a0a:	c7 04 24 80 60 10 00 	movl   $0x106080,(%esp)
  100a11:	e8 b5 fb ff ff       	call   1005cb <memset>
  100a16:	0f b7 45 ec          	movzwl -0x14(%ebp),%eax
  100a1a:	a3 88 60 10 00       	mov    %eax,0x106088
  100a1f:	8b 45 10             	mov    0x10(%ebp),%eax
  100a22:	a3 84 60 10 00       	mov    %eax,0x106084
  100a27:	c7 05 cc 60 10 00 0b 	movl   $0xb,0x1060cc
  100a2e:	00 00 00 
  100a31:	c7 05 dc 60 10 00 13 	movl   $0x13,0x1060dc
  100a38:	00 00 00 
  100a3b:	a1 dc 60 10 00       	mov    0x1060dc,%eax
  100a40:	a3 d8 60 10 00       	mov    %eax,0x1060d8
  100a45:	a1 d8 60 10 00       	mov    0x1060d8,%eax
  100a4a:	a3 c8 60 10 00       	mov    %eax,0x1060c8
  100a4f:	a1 c8 60 10 00       	mov    0x1060c8,%eax
  100a54:	a3 d4 60 10 00       	mov    %eax,0x1060d4
  100a59:	a1 d4 60 10 00       	mov    0x1060d4,%eax
  100a5e:	a3 d0 60 10 00       	mov    %eax,0x1060d0
  100a63:	c9                   	leave  
  100a64:	c3                   	ret    

00100a65 <set_kernel_stack>:
  100a65:	55                   	push   %ebp
  100a66:	89 e5                	mov    %esp,%ebp
  100a68:	8b 45 08             	mov    0x8(%ebp),%eax
  100a6b:	a3 84 60 10 00       	mov    %eax,0x106084
  100a70:	5d                   	pop    %ebp
  100a71:	c3                   	ret    

00100a72 <init_idt>:
  100a72:	55                   	push   %ebp
  100a73:	89 e5                	mov    %esp,%ebp
  100a75:	83 ec 18             	sub    $0x18,%esp
  100a78:	66 c7 05 20 60 10 00 	movw   $0x7ff,0x106020
  100a7f:	ff 07 
  100a81:	b8 00 61 10 00       	mov    $0x106100,%eax
  100a86:	a3 22 60 10 00       	mov    %eax,0x106022
  100a8b:	c7 44 24 08 00 08 00 	movl   $0x800,0x8(%esp)
  100a92:	00 
  100a93:	c7 44 24 04 00 00 00 	movl   $0x0,0x4(%esp)
  100a9a:	00 
  100a9b:	c7 04 24 00 61 10 00 	movl   $0x106100,(%esp)
  100aa2:	e8 24 fb ff ff       	call   1005cb <memset>
  100aa7:	c7 44 24 04 11 00 00 	movl   $0x11,0x4(%esp)
  100aae:	00 
  100aaf:	c7 04 24 20 00 00 00 	movl   $0x20,(%esp)
  100ab6:	e8 8d fa ff ff       	call   100548 <outb>
  100abb:	c7 44 24 04 11 00 00 	movl   $0x11,0x4(%esp)
  100ac2:	00 
  100ac3:	c7 04 24 a0 00 00 00 	movl   $0xa0,(%esp)
  100aca:	e8 79 fa ff ff       	call   100548 <outb>
  100acf:	c7 44 24 04 20 00 00 	movl   $0x20,0x4(%esp)
  100ad6:	00 
  100ad7:	c7 04 24 21 00 00 00 	movl   $0x21,(%esp)
  100ade:	e8 65 fa ff ff       	call   100548 <outb>
  100ae3:	c7 44 24 04 28 00 00 	movl   $0x28,0x4(%esp)
  100aea:	00 
  100aeb:	c7 04 24 a1 00 00 00 	movl   $0xa1,(%esp)
  100af2:	e8 51 fa ff ff       	call   100548 <outb>
  100af7:	c7 44 24 04 04 00 00 	movl   $0x4,0x4(%esp)
  100afe:	00 
  100aff:	c7 04 24 21 00 00 00 	movl   $0x21,(%esp)
  100b06:	e8 3d fa ff ff       	call   100548 <outb>
  100b0b:	c7 44 24 04 02 00 00 	movl   $0x2,0x4(%esp)
  100b12:	00 
  100b13:	c7 04 24 a1 00 00 00 	movl   $0xa1,(%esp)
  100b1a:	e8 29 fa ff ff       	call   100548 <outb>
  100b1f:	c7 44 24 04 01 00 00 	movl   $0x1,0x4(%esp)
  100b26:	00 
  100b27:	c7 04 24 21 00 00 00 	movl   $0x21,(%esp)
  100b2e:	e8 15 fa ff ff       	call   100548 <outb>
  100b33:	c7 44 24 04 01 00 00 	movl   $0x1,0x4(%esp)
  100b3a:	00 
  100b3b:	c7 04 24 a1 00 00 00 	movl   $0xa1,(%esp)
  100b42:	e8 01 fa ff ff       	call   100548 <outb>
  100b47:	c7 44 24 04 00 00 00 	movl   $0x0,0x4(%esp)
  100b4e:	00 
  100b4f:	c7 04 24 21 00 00 00 	movl   $0x21,(%esp)
  100b56:	e8 ed f9 ff ff       	call   100548 <outb>
  100b5b:	c7 44 24 04 00 00 00 	movl   $0x0,0x4(%esp)
  100b62:	00 
  100b63:	c7 04 24 a1 00 00 00 	movl   $0xa1,(%esp)
  100b6a:	e8 d9 f9 ff ff       	call   100548 <outb>
  100b6f:	b8 e0 13 10 00       	mov    $0x1013e0,%eax
  100b74:	c7 44 24 0c 8e 00 00 	movl   $0x8e,0xc(%esp)
  100b7b:	00 
  100b7c:	c7 44 24 08 08 00 00 	movl   $0x8,0x8(%esp)
  100b83:	00 
  100b84:	89 44 24 04          	mov    %eax,0x4(%esp)
  100b88:	c7 04 24 00 00 00 00 	movl   $0x0,(%esp)
  100b8f:	e8 ff 06 00 00       	call   101293 <idt_set_gate>
  100b94:	b8 ed 13 10 00       	mov    $0x1013ed,%eax
  100b99:	c7 44 24 0c 8e 00 00 	movl   $0x8e,0xc(%esp)
  100ba0:	00 
  100ba1:	c7 44 24 08 08 00 00 	movl   $0x8,0x8(%esp)
  100ba8:	00 
  100ba9:	89 44 24 04          	mov    %eax,0x4(%esp)
  100bad:	c7 04 24 01 00 00 00 	movl   $0x1,(%esp)
  100bb4:	e8 da 06 00 00       	call   101293 <idt_set_gate>
  100bb9:	b8 fa 13 10 00       	mov    $0x1013fa,%eax
  100bbe:	c7 44 24 0c 8e 00 00 	movl   $0x8e,0xc(%esp)
  100bc5:	00 
  100bc6:	c7 44 24 08 08 00 00 	movl   $0x8,0x8(%esp)
  100bcd:	00 
  100bce:	89 44 24 04          	mov    %eax,0x4(%esp)
  100bd2:	c7 04 24 02 00 00 00 	movl   $0x2,(%esp)
  100bd9:	e8 b5 06 00 00       	call   101293 <idt_set_gate>
  100bde:	b8 07 14 10 00       	mov    $0x101407,%eax
  100be3:	c7 44 24 0c 8e 00 00 	movl   $0x8e,0xc(%esp)
  100bea:	00 
  100beb:	c7 44 24 08 08 00 00 	movl   $0x8,0x8(%esp)
  100bf2:	00 
  100bf3:	89 44 24 04          	mov    %eax,0x4(%esp)
  100bf7:	c7 04 24 03 00 00 00 	movl   $0x3,(%esp)
  100bfe:	e8 90 06 00 00       	call   101293 <idt_set_gate>
  100c03:	b8 14 14 10 00       	mov    $0x101414,%eax
  100c08:	c7 44 24 0c 8e 00 00 	movl   $0x8e,0xc(%esp)
  100c0f:	00 
  100c10:	c7 44 24 08 08 00 00 	movl   $0x8,0x8(%esp)
  100c17:	00 
  100c18:	89 44 24 04          	mov    %eax,0x4(%esp)
  100c1c:	c7 04 24 04 00 00 00 	movl   $0x4,(%esp)
  100c23:	e8 6b 06 00 00       	call   101293 <idt_set_gate>
  100c28:	b8 21 14 10 00       	mov    $0x101421,%eax
  100c2d:	c7 44 24 0c 8e 00 00 	movl   $0x8e,0xc(%esp)
  100c34:	00 
  100c35:	c7 44 24 08 08 00 00 	movl   $0x8,0x8(%esp)
  100c3c:	00 
  100c3d:	89 44 24 04          	mov    %eax,0x4(%esp)
  100c41:	c7 04 24 05 00 00 00 	movl   $0x5,(%esp)
  100c48:	e8 46 06 00 00       	call   101293 <idt_set_gate>
  100c4d:	b8 2e 14 10 00       	mov    $0x10142e,%eax
  100c52:	c7 44 24 0c 8e 00 00 	movl   $0x8e,0xc(%esp)
  100c59:	00 
  100c5a:	c7 44 24 08 08 00 00 	movl   $0x8,0x8(%esp)
  100c61:	00 
  100c62:	89 44 24 04          	mov    %eax,0x4(%esp)
  100c66:	c7 04 24 06 00 00 00 	movl   $0x6,(%esp)
  100c6d:	e8 21 06 00 00       	call   101293 <idt_set_gate>
  100c72:	b8 3b 14 10 00       	mov    $0x10143b,%eax
  100c77:	c7 44 24 0c 8e 00 00 	movl   $0x8e,0xc(%esp)
  100c7e:	00 
  100c7f:	c7 44 24 08 08 00 00 	movl   $0x8,0x8(%esp)
  100c86:	00 
  100c87:	89 44 24 04          	mov    %eax,0x4(%esp)
  100c8b:	c7 04 24 07 00 00 00 	movl   $0x7,(%esp)
  100c92:	e8 fc 05 00 00       	call   101293 <idt_set_gate>
  100c97:	b8 48 14 10 00       	mov    $0x101448,%eax
  100c9c:	c7 44 24 0c 8e 00 00 	movl   $0x8e,0xc(%esp)
  100ca3:	00 
  100ca4:	c7 44 24 08 08 00 00 	movl   $0x8,0x8(%esp)
  100cab:	00 
  100cac:	89 44 24 04          	mov    %eax,0x4(%esp)
  100cb0:	c7 04 24 08 00 00 00 	movl   $0x8,(%esp)
  100cb7:	e8 d7 05 00 00       	call   101293 <idt_set_gate>
  100cbc:	b8 53 14 10 00       	mov    $0x101453,%eax
  100cc1:	c7 44 24 0c 8e 00 00 	movl   $0x8e,0xc(%esp)
  100cc8:	00 
  100cc9:	c7 44 24 08 08 00 00 	movl   $0x8,0x8(%esp)
  100cd0:	00 
  100cd1:	89 44 24 04          	mov    %eax,0x4(%esp)
  100cd5:	c7 04 24 09 00 00 00 	movl   $0x9,(%esp)
  100cdc:	e8 b2 05 00 00       	call   101293 <idt_set_gate>
  100ce1:	b8 60 14 10 00       	mov    $0x101460,%eax
  100ce6:	c7 44 24 0c 8e 00 00 	movl   $0x8e,0xc(%esp)
  100ced:	00 
  100cee:	c7 44 24 08 08 00 00 	movl   $0x8,0x8(%esp)
  100cf5:	00 
  100cf6:	89 44 24 04          	mov    %eax,0x4(%esp)
  100cfa:	c7 04 24 0a 00 00 00 	movl   $0xa,(%esp)
  100d01:	e8 8d 05 00 00       	call   101293 <idt_set_gate>
  100d06:	b8 6b 14 10 00       	mov    $0x10146b,%eax
  100d0b:	c7 44 24 0c 8e 00 00 	movl   $0x8e,0xc(%esp)
  100d12:	00 
  100d13:	c7 44 24 08 08 00 00 	movl   $0x8,0x8(%esp)
  100d1a:	00 
  100d1b:	89 44 24 04          	mov    %eax,0x4(%esp)
  100d1f:	c7 04 24 0b 00 00 00 	movl   $0xb,(%esp)
  100d26:	e8 68 05 00 00       	call   101293 <idt_set_gate>
  100d2b:	b8 76 14 10 00       	mov    $0x101476,%eax
  100d30:	c7 44 24 0c 8e 00 00 	movl   $0x8e,0xc(%esp)
  100d37:	00 
  100d38:	c7 44 24 08 08 00 00 	movl   $0x8,0x8(%esp)
  100d3f:	00 
  100d40:	89 44 24 04          	mov    %eax,0x4(%esp)
  100d44:	c7 04 24 0c 00 00 00 	movl   $0xc,(%esp)
  100d4b:	e8 43 05 00 00       	call   101293 <idt_set_gate>
  100d50:	b8 81 14 10 00       	mov    $0x101481,%eax
  100d55:	c7 44 24 0c 8e 00 00 	movl   $0x8e,0xc(%esp)
  100d5c:	00 
  100d5d:	c7 44 24 08 08 00 00 	movl   $0x8,0x8(%esp)
  100d64:	00 
  100d65:	89 44 24 04          	mov    %eax,0x4(%esp)
  100d69:	c7 04 24 0d 00 00 00 	movl   $0xd,(%esp)
  100d70:	e8 1e 05 00 00       	call   101293 <idt_set_gate>
  100d75:	b8 8c 14 10 00       	mov    $0x10148c,%eax
  100d7a:	c7 44 24 0c 8e 00 00 	movl   $0x8e,0xc(%esp)
  100d81:	00 
  100d82:	c7 44 24 08 08 00 00 	movl   $0x8,0x8(%esp)
  100d89:	00 
  100d8a:	89 44 24 04          	mov    %eax,0x4(%esp)
  100d8e:	c7 04 24 0e 00 00 00 	movl   $0xe,(%esp)
  100d95:	e8 f9 04 00 00       	call   101293 <idt_set_gate>
  100d9a:	b8 97 14 10 00       	mov    $0x101497,%eax
  100d9f:	c7 44 24 0c 8e 00 00 	movl   $0x8e,0xc(%esp)
  100da6:	00 
  100da7:	c7 44 24 08 08 00 00 	movl   $0x8,0x8(%esp)
  100dae:	00 
  100daf:	89 44 24 04          	mov    %eax,0x4(%esp)
  100db3:	c7 04 24 0f 00 00 00 	movl   $0xf,(%esp)
  100dba:	e8 d4 04 00 00       	call   101293 <idt_set_gate>
  100dbf:	b8 a4 14 10 00       	mov    $0x1014a4,%eax
  100dc4:	c7 44 24 0c 8e 00 00 	movl   $0x8e,0xc(%esp)
  100dcb:	00 
  100dcc:	c7 44 24 08 08 00 00 	movl   $0x8,0x8(%esp)
  100dd3:	00 
  100dd4:	89 44 24 04          	mov    %eax,0x4(%esp)
  100dd8:	c7 04 24 10 00 00 00 	movl   $0x10,(%esp)
  100ddf:	e8 af 04 00 00       	call   101293 <idt_set_gate>
  100de4:	b8 b1 14 10 00       	mov    $0x1014b1,%eax
  100de9:	c7 44 24 0c 8e 00 00 	movl   $0x8e,0xc(%esp)
  100df0:	00 
  100df1:	c7 44 24 08 08 00 00 	movl   $0x8,0x8(%esp)
  100df8:	00 
  100df9:	89 44 24 04          	mov    %eax,0x4(%esp)
  100dfd:	c7 04 24 11 00 00 00 	movl   $0x11,(%esp)
  100e04:	e8 8a 04 00 00       	call   101293 <idt_set_gate>
  100e09:	b8 be 14 10 00       	mov    $0x1014be,%eax
  100e0e:	c7 44 24 0c 8e 00 00 	movl   $0x8e,0xc(%esp)
  100e15:	00 
  100e16:	c7 44 24 08 08 00 00 	movl   $0x8,0x8(%esp)
  100e1d:	00 
  100e1e:	89 44 24 04          	mov    %eax,0x4(%esp)
  100e22:	c7 04 24 12 00 00 00 	movl   $0x12,(%esp)
  100e29:	e8 65 04 00 00       	call   101293 <idt_set_gate>
  100e2e:	b8 cb 14 10 00       	mov    $0x1014cb,%eax
  100e33:	c7 44 24 0c 8e 00 00 	movl   $0x8e,0xc(%esp)
  100e3a:	00 
  100e3b:	c7 44 24 08 08 00 00 	movl   $0x8,0x8(%esp)
  100e42:	00 
  100e43:	89 44 24 04          	mov    %eax,0x4(%esp)
  100e47:	c7 04 24 13 00 00 00 	movl   $0x13,(%esp)
  100e4e:	e8 40 04 00 00       	call   101293 <idt_set_gate>
  100e53:	b8 d8 14 10 00       	mov    $0x1014d8,%eax
  100e58:	c7 44 24 0c 8e 00 00 	movl   $0x8e,0xc(%esp)
  100e5f:	00 
  100e60:	c7 44 24 08 08 00 00 	movl   $0x8,0x8(%esp)
  100e67:	00 
  100e68:	89 44 24 04          	mov    %eax,0x4(%esp)
  100e6c:	c7 04 24 14 00 00 00 	movl   $0x14,(%esp)
  100e73:	e8 1b 04 00 00       	call   101293 <idt_set_gate>
  100e78:	b8 e5 14 10 00       	mov    $0x1014e5,%eax
  100e7d:	c7 44 24 0c 8e 00 00 	movl   $0x8e,0xc(%esp)
  100e84:	00 
  100e85:	c7 44 24 08 08 00 00 	movl   $0x8,0x8(%esp)
  100e8c:	00 
  100e8d:	89 44 24 04          	mov    %eax,0x4(%esp)
  100e91:	c7 04 24 15 00 00 00 	movl   $0x15,(%esp)
  100e98:	e8 f6 03 00 00       	call   101293 <idt_set_gate>
  100e9d:	b8 f2 14 10 00       	mov    $0x1014f2,%eax
  100ea2:	c7 44 24 0c 8e 00 00 	movl   $0x8e,0xc(%esp)
  100ea9:	00 
  100eaa:	c7 44 24 08 08 00 00 	movl   $0x8,0x8(%esp)
  100eb1:	00 
  100eb2:	89 44 24 04          	mov    %eax,0x4(%esp)
  100eb6:	c7 04 24 16 00 00 00 	movl   $0x16,(%esp)
  100ebd:	e8 d1 03 00 00       	call   101293 <idt_set_gate>
  100ec2:	b8 ff 14 10 00       	mov    $0x1014ff,%eax
  100ec7:	c7 44 24 0c 8e 00 00 	movl   $0x8e,0xc(%esp)
  100ece:	00 
  100ecf:	c7 44 24 08 08 00 00 	movl   $0x8,0x8(%esp)
  100ed6:	00 
  100ed7:	89 44 24 04          	mov    %eax,0x4(%esp)
  100edb:	c7 04 24 17 00 00 00 	movl   $0x17,(%esp)
  100ee2:	e8 ac 03 00 00       	call   101293 <idt_set_gate>
  100ee7:	b8 0c 15 10 00       	mov    $0x10150c,%eax
  100eec:	c7 44 24 0c 8e 00 00 	movl   $0x8e,0xc(%esp)
  100ef3:	00 
  100ef4:	c7 44 24 08 08 00 00 	movl   $0x8,0x8(%esp)
  100efb:	00 
  100efc:	89 44 24 04          	mov    %eax,0x4(%esp)
  100f00:	c7 04 24 18 00 00 00 	movl   $0x18,(%esp)
  100f07:	e8 87 03 00 00       	call   101293 <idt_set_gate>
  100f0c:	b8 19 15 10 00       	mov    $0x101519,%eax
  100f11:	c7 44 24 0c 8e 00 00 	movl   $0x8e,0xc(%esp)
  100f18:	00 
  100f19:	c7 44 24 08 08 00 00 	movl   $0x8,0x8(%esp)
  100f20:	00 
  100f21:	89 44 24 04          	mov    %eax,0x4(%esp)
  100f25:	c7 04 24 19 00 00 00 	movl   $0x19,(%esp)
  100f2c:	e8 62 03 00 00       	call   101293 <idt_set_gate>
  100f31:	b8 26 15 10 00       	mov    $0x101526,%eax
  100f36:	c7 44 24 0c 8e 00 00 	movl   $0x8e,0xc(%esp)
  100f3d:	00 
  100f3e:	c7 44 24 08 08 00 00 	movl   $0x8,0x8(%esp)
  100f45:	00 
  100f46:	89 44 24 04          	mov    %eax,0x4(%esp)
  100f4a:	c7 04 24 1a 00 00 00 	movl   $0x1a,(%esp)
  100f51:	e8 3d 03 00 00       	call   101293 <idt_set_gate>
  100f56:	b8 33 15 10 00       	mov    $0x101533,%eax
  100f5b:	c7 44 24 0c 8e 00 00 	movl   $0x8e,0xc(%esp)
  100f62:	00 
  100f63:	c7 44 24 08 08 00 00 	movl   $0x8,0x8(%esp)
  100f6a:	00 
  100f6b:	89 44 24 04          	mov    %eax,0x4(%esp)
  100f6f:	c7 04 24 1b 00 00 00 	movl   $0x1b,(%esp)
  100f76:	e8 18 03 00 00       	call   101293 <idt_set_gate>
  100f7b:	b8 40 15 10 00       	mov    $0x101540,%eax
  100f80:	c7 44 24 0c 8e 00 00 	movl   $0x8e,0xc(%esp)
  100f87:	00 
  100f88:	c7 44 24 08 08 00 00 	movl   $0x8,0x8(%esp)
  100f8f:	00 
  100f90:	89 44 24 04          	mov    %eax,0x4(%esp)
  100f94:	c7 04 24 1c 00 00 00 	movl   $0x1c,(%esp)
  100f9b:	e8 f3 02 00 00       	call   101293 <idt_set_gate>
  100fa0:	b8 4d 15 10 00       	mov    $0x10154d,%eax
  100fa5:	c7 44 24 0c 8e 00 00 	movl   $0x8e,0xc(%esp)
  100fac:	00 
  100fad:	c7 44 24 08 08 00 00 	movl   $0x8,0x8(%esp)
  100fb4:	00 
  100fb5:	89 44 24 04          	mov    %eax,0x4(%esp)
  100fb9:	c7 04 24 1d 00 00 00 	movl   $0x1d,(%esp)
  100fc0:	e8 ce 02 00 00       	call   101293 <idt_set_gate>
  100fc5:	b8 5a 15 10 00       	mov    $0x10155a,%eax
  100fca:	c7 44 24 0c 8e 00 00 	movl   $0x8e,0xc(%esp)
  100fd1:	00 
  100fd2:	c7 44 24 08 08 00 00 	movl   $0x8,0x8(%esp)
  100fd9:	00 
  100fda:	89 44 24 04          	mov    %eax,0x4(%esp)
  100fde:	c7 04 24 1e 00 00 00 	movl   $0x1e,(%esp)
  100fe5:	e8 a9 02 00 00       	call   101293 <idt_set_gate>
  100fea:	b8 67 15 10 00       	mov    $0x101567,%eax
  100fef:	c7 44 24 0c 8e 00 00 	movl   $0x8e,0xc(%esp)
  100ff6:	00 
  100ff7:	c7 44 24 08 08 00 00 	movl   $0x8,0x8(%esp)
  100ffe:	00 
  100fff:	89 44 24 04          	mov    %eax,0x4(%esp)
  101003:	c7 04 24 1f 00 00 00 	movl   $0x1f,(%esp)
  10100a:	e8 84 02 00 00       	call   101293 <idt_set_gate>
  10100f:	b8 81 15 10 00       	mov    $0x101581,%eax
  101014:	c7 44 24 0c 8e 00 00 	movl   $0x8e,0xc(%esp)
  10101b:	00 
  10101c:	c7 44 24 08 08 00 00 	movl   $0x8,0x8(%esp)
  101023:	00 
  101024:	89 44 24 04          	mov    %eax,0x4(%esp)
  101028:	c7 04 24 20 00 00 00 	movl   $0x20,(%esp)
  10102f:	e8 5f 02 00 00       	call   101293 <idt_set_gate>
  101034:	b8 8b 15 10 00       	mov    $0x10158b,%eax
  101039:	c7 44 24 0c 8e 00 00 	movl   $0x8e,0xc(%esp)
  101040:	00 
  101041:	c7 44 24 08 08 00 00 	movl   $0x8,0x8(%esp)
  101048:	00 
  101049:	89 44 24 04          	mov    %eax,0x4(%esp)
  10104d:	c7 04 24 21 00 00 00 	movl   $0x21,(%esp)
  101054:	e8 3a 02 00 00       	call   101293 <idt_set_gate>
  101059:	b8 95 15 10 00       	mov    $0x101595,%eax
  10105e:	c7 44 24 0c 8e 00 00 	movl   $0x8e,0xc(%esp)
  101065:	00 
  101066:	c7 44 24 08 08 00 00 	movl   $0x8,0x8(%esp)
  10106d:	00 
  10106e:	89 44 24 04          	mov    %eax,0x4(%esp)
  101072:	c7 04 24 22 00 00 00 	movl   $0x22,(%esp)
  101079:	e8 15 02 00 00       	call   101293 <idt_set_gate>
  10107e:	b8 9f 15 10 00       	mov    $0x10159f,%eax
  101083:	c7 44 24 0c 8e 00 00 	movl   $0x8e,0xc(%esp)
  10108a:	00 
  10108b:	c7 44 24 08 08 00 00 	movl   $0x8,0x8(%esp)
  101092:	00 
  101093:	89 44 24 04          	mov    %eax,0x4(%esp)
  101097:	c7 04 24 23 00 00 00 	movl   $0x23,(%esp)
  10109e:	e8 f0 01 00 00       	call   101293 <idt_set_gate>
  1010a3:	b8 a9 15 10 00       	mov    $0x1015a9,%eax
  1010a8:	c7 44 24 0c 8e 00 00 	movl   $0x8e,0xc(%esp)
  1010af:	00 
  1010b0:	c7 44 24 08 08 00 00 	movl   $0x8,0x8(%esp)
  1010b7:	00 
  1010b8:	89 44 24 04          	mov    %eax,0x4(%esp)
  1010bc:	c7 04 24 24 00 00 00 	movl   $0x24,(%esp)
  1010c3:	e8 cb 01 00 00       	call   101293 <idt_set_gate>
  1010c8:	b8 b3 15 10 00       	mov    $0x1015b3,%eax
  1010cd:	c7 44 24 0c 8e 00 00 	movl   $0x8e,0xc(%esp)
  1010d4:	00 
  1010d5:	c7 44 24 08 08 00 00 	movl   $0x8,0x8(%esp)
  1010dc:	00 
  1010dd:	89 44 24 04          	mov    %eax,0x4(%esp)
  1010e1:	c7 04 24 25 00 00 00 	movl   $0x25,(%esp)
  1010e8:	e8 a6 01 00 00       	call   101293 <idt_set_gate>
  1010ed:	b8 bd 15 10 00       	mov    $0x1015bd,%eax
  1010f2:	c7 44 24 0c 8e 00 00 	movl   $0x8e,0xc(%esp)
  1010f9:	00 
  1010fa:	c7 44 24 08 08 00 00 	movl   $0x8,0x8(%esp)
  101101:	00 
  101102:	89 44 24 04          	mov    %eax,0x4(%esp)
  101106:	c7 04 24 26 00 00 00 	movl   $0x26,(%esp)
  10110d:	e8 81 01 00 00       	call   101293 <idt_set_gate>
  101112:	b8 c7 15 10 00       	mov    $0x1015c7,%eax
  101117:	c7 44 24 0c 8e 00 00 	movl   $0x8e,0xc(%esp)
  10111e:	00 
  10111f:	c7 44 24 08 08 00 00 	movl   $0x8,0x8(%esp)
  101126:	00 
  101127:	89 44 24 04          	mov    %eax,0x4(%esp)
  10112b:	c7 04 24 27 00 00 00 	movl   $0x27,(%esp)
  101132:	e8 5c 01 00 00       	call   101293 <idt_set_gate>
  101137:	b8 d1 15 10 00       	mov    $0x1015d1,%eax
  10113c:	c7 44 24 0c 8e 00 00 	movl   $0x8e,0xc(%esp)
  101143:	00 
  101144:	c7 44 24 08 08 00 00 	movl   $0x8,0x8(%esp)
  10114b:	00 
  10114c:	89 44 24 04          	mov    %eax,0x4(%esp)
  101150:	c7 04 24 28 00 00 00 	movl   $0x28,(%esp)
  101157:	e8 37 01 00 00       	call   101293 <idt_set_gate>
  10115c:	b8 db 15 10 00       	mov    $0x1015db,%eax
  101161:	c7 44 24 0c 8e 00 00 	movl   $0x8e,0xc(%esp)
  101168:	00 
  101169:	c7 44 24 08 08 00 00 	movl   $0x8,0x8(%esp)
  101170:	00 
  101171:	89 44 24 04          	mov    %eax,0x4(%esp)
  101175:	c7 04 24 29 00 00 00 	movl   $0x29,(%esp)
  10117c:	e8 12 01 00 00       	call   101293 <idt_set_gate>
  101181:	b8 e5 15 10 00       	mov    $0x1015e5,%eax
  101186:	c7 44 24 0c 8e 00 00 	movl   $0x8e,0xc(%esp)
  10118d:	00 
  10118e:	c7 44 24 08 08 00 00 	movl   $0x8,0x8(%esp)
  101195:	00 
  101196:	89 44 24 04          	mov    %eax,0x4(%esp)
  10119a:	c7 04 24 2a 00 00 00 	movl   $0x2a,(%esp)
  1011a1:	e8 ed 00 00 00       	call   101293 <idt_set_gate>
  1011a6:	b8 ef 15 10 00       	mov    $0x1015ef,%eax
  1011ab:	c7 44 24 0c 8e 00 00 	movl   $0x8e,0xc(%esp)
  1011b2:	00 
  1011b3:	c7 44 24 08 08 00 00 	movl   $0x8,0x8(%esp)
  1011ba:	00 
  1011bb:	89 44 24 04          	mov    %eax,0x4(%esp)
  1011bf:	c7 04 24 2b 00 00 00 	movl   $0x2b,(%esp)
  1011c6:	e8 c8 00 00 00       	call   101293 <idt_set_gate>
  1011cb:	b8 f9 15 10 00       	mov    $0x1015f9,%eax
  1011d0:	c7 44 24 0c 8e 00 00 	movl   $0x8e,0xc(%esp)
  1011d7:	00 
  1011d8:	c7 44 24 08 08 00 00 	movl   $0x8,0x8(%esp)
  1011df:	00 
  1011e0:	89 44 24 04          	mov    %eax,0x4(%esp)
  1011e4:	c7 04 24 2c 00 00 00 	movl   $0x2c,(%esp)
  1011eb:	e8 a3 00 00 00       	call   101293 <idt_set_gate>
  1011f0:	b8 03 16 10 00       	mov    $0x101603,%eax
  1011f5:	c7 44 24 0c 8e 00 00 	movl   $0x8e,0xc(%esp)
  1011fc:	00 
  1011fd:	c7 44 24 08 08 00 00 	movl   $0x8,0x8(%esp)
  101204:	00 
  101205:	89 44 24 04          	mov    %eax,0x4(%esp)
  101209:	c7 04 24 2d 00 00 00 	movl   $0x2d,(%esp)
  101210:	e8 7e 00 00 00       	call   101293 <idt_set_gate>
  101215:	b8 0d 16 10 00       	mov    $0x10160d,%eax
  10121a:	c7 44 24 0c 8e 00 00 	movl   $0x8e,0xc(%esp)
  101221:	00 
  101222:	c7 44 24 08 08 00 00 	movl   $0x8,0x8(%esp)
  101229:	00 
  10122a:	89 44 24 04          	mov    %eax,0x4(%esp)
  10122e:	c7 04 24 2e 00 00 00 	movl   $0x2e,(%esp)
  101235:	e8 59 00 00 00       	call   101293 <idt_set_gate>
  10123a:	b8 17 16 10 00       	mov    $0x101617,%eax
  10123f:	c7 44 24 0c 8e 00 00 	movl   $0x8e,0xc(%esp)
  101246:	00 
  101247:	c7 44 24 08 08 00 00 	movl   $0x8,0x8(%esp)
  10124e:	00 
  10124f:	89 44 24 04          	mov    %eax,0x4(%esp)
  101253:	c7 04 24 2f 00 00 00 	movl   $0x2f,(%esp)
  10125a:	e8 34 00 00 00       	call   101293 <idt_set_gate>
  10125f:	b8 74 15 10 00       	mov    $0x101574,%eax
  101264:	c7 44 24 0c 8e 00 00 	movl   $0x8e,0xc(%esp)
  10126b:	00 
  10126c:	c7 44 24 08 08 00 00 	movl   $0x8,0x8(%esp)
  101273:	00 
  101274:	89 44 24 04          	mov    %eax,0x4(%esp)
  101278:	c7 04 24 80 00 00 00 	movl   $0x80,(%esp)
  10127f:	e8 0f 00 00 00       	call   101293 <idt_set_gate>
  101284:	b8 20 60 10 00       	mov    $0x106020,%eax
  101289:	89 04 24             	mov    %eax,(%esp)
  10128c:	e8 0c 04 00 00       	call   10169d <idt_flush>
  101291:	c9                   	leave  
  101292:	c3                   	ret    

00101293 <idt_set_gate>:
  101293:	55                   	push   %ebp
  101294:	89 e5                	mov    %esp,%ebp
  101296:	83 ec 0c             	sub    $0xc,%esp
  101299:	8b 45 08             	mov    0x8(%ebp),%eax
  10129c:	8b 55 10             	mov    0x10(%ebp),%edx
  10129f:	8b 4d 14             	mov    0x14(%ebp),%ecx
  1012a2:	88 45 fc             	mov    %al,-0x4(%ebp)
  1012a5:	66 89 55 f8          	mov    %dx,-0x8(%ebp)
  1012a9:	88 4d f4             	mov    %cl,-0xc(%ebp)
  1012ac:	0f b6 55 fc          	movzbl -0x4(%ebp),%edx
  1012b0:	8b 45 0c             	mov    0xc(%ebp),%eax
  1012b3:	0f b7 c0             	movzwl %ax,%eax
  1012b6:	66 89 04 d5 00 61 10 	mov    %ax,0x106100(,%edx,8)
  1012bd:	00 
  1012be:	0f b6 55 fc          	movzbl -0x4(%ebp),%edx
  1012c2:	8b 45 0c             	mov    0xc(%ebp),%eax
  1012c5:	c1 e8 10             	shr    $0x10,%eax
  1012c8:	0f b7 c0             	movzwl %ax,%eax
  1012cb:	66 89 04 d5 06 61 10 	mov    %ax,0x106106(,%edx,8)
  1012d2:	00 
  1012d3:	0f b6 55 fc          	movzbl -0x4(%ebp),%edx
  1012d7:	8b 45 f8             	mov    -0x8(%ebp),%eax
  1012da:	66 89 04 d5 02 61 10 	mov    %ax,0x106102(,%edx,8)
  1012e1:	00 
  1012e2:	0f b6 45 fc          	movzbl -0x4(%ebp),%eax
  1012e6:	c6 04 c5 04 61 10 00 	movb   $0x0,0x106104(,%eax,8)
  1012ed:	00 
  1012ee:	0f b6 55 fc          	movzbl -0x4(%ebp),%edx
  1012f2:	0f b6 45 f4          	movzbl -0xc(%ebp),%eax
  1012f6:	0c 60                	or     $0x60,%al
  1012f8:	88 04 d5 05 61 10 00 	mov    %al,0x106105(,%edx,8)
  1012ff:	c9                   	leave  
  101300:	c3                   	ret    
  101301:	00 00                	add    %al,(%eax)
	...

00101304 <register_interrupt_handler>:
  101304:	55                   	push   %ebp
  101305:	89 e5                	mov    %esp,%ebp
  101307:	83 ec 04             	sub    $0x4,%esp
  10130a:	8b 45 08             	mov    0x8(%ebp),%eax
  10130d:	88 45 fc             	mov    %al,-0x4(%ebp)
  101310:	0f b6 55 fc          	movzbl -0x4(%ebp),%edx
  101314:	8b 45 0c             	mov    0xc(%ebp),%eax
  101317:	89 04 95 20 69 10 00 	mov    %eax,0x106920(,%edx,4)
  10131e:	c9                   	leave  
  10131f:	c3                   	ret    

00101320 <isr_handler>:
  101320:	55                   	push   %ebp
  101321:	89 e5                	mov    %esp,%ebp
  101323:	83 ec 18             	sub    $0x18,%esp
  101326:	8b 45 2c             	mov    0x2c(%ebp),%eax
  101329:	88 45 fb             	mov    %al,-0x5(%ebp)
  10132c:	0f b6 45 fb          	movzbl -0x5(%ebp),%eax
  101330:	8b 04 85 20 69 10 00 	mov    0x106920(,%eax,4),%eax
  101337:	85 c0                	test   %eax,%eax
  101339:	74 1b                	je     101356 <isr_handler+0x36>
  10133b:	0f b6 45 fb          	movzbl -0x5(%ebp),%eax
  10133f:	8b 04 85 20 69 10 00 	mov    0x106920(,%eax,4),%eax
  101346:	89 45 fc             	mov    %eax,-0x4(%ebp)
  101349:	8d 45 08             	lea    0x8(%ebp),%eax
  10134c:	89 04 24             	mov    %eax,(%esp)
  10134f:	8b 45 fc             	mov    -0x4(%ebp),%eax
  101352:	ff d0                	call   *%eax
  101354:	eb 26                	jmp    10137c <isr_handler+0x5c>
  101356:	c7 04 24 77 40 10 00 	movl   $0x104077,(%esp)
  10135d:	e8 2d f0 ff ff       	call   10038f <monitor_write>
  101362:	0f b6 45 fb          	movzbl -0x5(%ebp),%eax
  101366:	89 04 24             	mov    %eax,(%esp)
  101369:	e8 56 f0 ff ff       	call   1003c4 <monitor_write_hex>
  10136e:	c7 04 24 0a 00 00 00 	movl   $0xa,(%esp)
  101375:	e8 98 ee ff ff       	call   100212 <monitor_put>
  10137a:	eb fe                	jmp    10137a <isr_handler+0x5a>
  10137c:	c9                   	leave  
  10137d:	c3                   	ret    

0010137e <irq_handler>:
  10137e:	55                   	push   %ebp
  10137f:	89 e5                	mov    %esp,%ebp
  101381:	83 ec 18             	sub    $0x18,%esp
  101384:	8b 45 2c             	mov    0x2c(%ebp),%eax
  101387:	83 f8 27             	cmp    $0x27,%eax
  10138a:	76 14                	jbe    1013a0 <irq_handler+0x22>
  10138c:	c7 44 24 04 20 00 00 	movl   $0x20,0x4(%esp)
  101393:	00 
  101394:	c7 04 24 a0 00 00 00 	movl   $0xa0,(%esp)
  10139b:	e8 a8 f1 ff ff       	call   100548 <outb>
  1013a0:	c7 44 24 04 20 00 00 	movl   $0x20,0x4(%esp)
  1013a7:	00 
  1013a8:	c7 04 24 20 00 00 00 	movl   $0x20,(%esp)
  1013af:	e8 94 f1 ff ff       	call   100548 <outb>
  1013b4:	8b 45 2c             	mov    0x2c(%ebp),%eax
  1013b7:	8b 04 85 20 69 10 00 	mov    0x106920(,%eax,4),%eax
  1013be:	85 c0                	test   %eax,%eax
  1013c0:	74 18                	je     1013da <irq_handler+0x5c>
  1013c2:	8b 45 2c             	mov    0x2c(%ebp),%eax
  1013c5:	8b 04 85 20 69 10 00 	mov    0x106920(,%eax,4),%eax
  1013cc:	89 45 fc             	mov    %eax,-0x4(%ebp)
  1013cf:	8d 45 08             	lea    0x8(%ebp),%eax
  1013d2:	89 04 24             	mov    %eax,(%esp)
  1013d5:	8b 45 fc             	mov    -0x4(%ebp),%eax
  1013d8:	ff d0                	call   *%eax
  1013da:	c9                   	leave  
  1013db:	c3                   	ret    
  1013dc:	00 00                	add    %al,(%eax)
	...

001013e0 <isr0>:
  1013e0:	fa                   	cli    
  1013e1:	6a 00                	push   $0x0
  1013e3:	68 00 00 00 00       	push   $0x0
  1013e8:	e9 34 02 00 00       	jmp    101621 <isr_common_stub>

001013ed <isr1>:
  1013ed:	fa                   	cli    
  1013ee:	6a 00                	push   $0x0
  1013f0:	68 01 00 00 00       	push   $0x1
  1013f5:	e9 27 02 00 00       	jmp    101621 <isr_common_stub>

001013fa <isr2>:
  1013fa:	fa                   	cli    
  1013fb:	6a 00                	push   $0x0
  1013fd:	68 02 00 00 00       	push   $0x2
  101402:	e9 1a 02 00 00       	jmp    101621 <isr_common_stub>

00101407 <isr3>:
  101407:	fa                   	cli    
  101408:	6a 00                	push   $0x0
  10140a:	68 03 00 00 00       	push   $0x3
  10140f:	e9 0d 02 00 00       	jmp    101621 <isr_common_stub>

00101414 <isr4>:
  101414:	fa                   	cli    
  101415:	6a 00                	push   $0x0
  101417:	68 04 00 00 00       	push   $0x4
  10141c:	e9 00 02 00 00       	jmp    101621 <isr_common_stub>

00101421 <isr5>:
  101421:	fa                   	cli    
  101422:	6a 00                	push   $0x0
  101424:	68 05 00 00 00       	push   $0x5
  101429:	e9 f3 01 00 00       	jmp    101621 <isr_common_stub>

0010142e <isr6>:
  10142e:	fa                   	cli    
  10142f:	6a 00                	push   $0x0
  101431:	68 06 00 00 00       	push   $0x6
  101436:	e9 e6 01 00 00       	jmp    101621 <isr_common_stub>

0010143b <isr7>:
  10143b:	fa                   	cli    
  10143c:	6a 00                	push   $0x0
  10143e:	68 07 00 00 00       	push   $0x7
  101443:	e9 d9 01 00 00       	jmp    101621 <isr_common_stub>

00101448 <isr8>:
  101448:	fa                   	cli    
  101449:	68 08 00 00 00       	push   $0x8
  10144e:	e9 ce 01 00 00       	jmp    101621 <isr_common_stub>

00101453 <isr9>:
  101453:	fa                   	cli    
  101454:	6a 00                	push   $0x0
  101456:	68 09 00 00 00       	push   $0x9
  10145b:	e9 c1 01 00 00       	jmp    101621 <isr_common_stub>

00101460 <isr10>:
  101460:	fa                   	cli    
  101461:	68 0a 00 00 00       	push   $0xa
  101466:	e9 b6 01 00 00       	jmp    101621 <isr_common_stub>

0010146b <isr11>:
  10146b:	fa                   	cli    
  10146c:	68 0b 00 00 00       	push   $0xb
  101471:	e9 ab 01 00 00       	jmp    101621 <isr_common_stub>

00101476 <isr12>:
  101476:	fa                   	cli    
  101477:	68 0c 00 00 00       	push   $0xc
  10147c:	e9 a0 01 00 00       	jmp    101621 <isr_common_stub>

00101481 <isr13>:
  101481:	fa                   	cli    
  101482:	68 0d 00 00 00       	push   $0xd
  101487:	e9 95 01 00 00       	jmp    101621 <isr_common_stub>

0010148c <isr14>:
  10148c:	fa                   	cli    
  10148d:	68 0e 00 00 00       	push   $0xe
  101492:	e9 8a 01 00 00       	jmp    101621 <isr_common_stub>

00101497 <isr15>:
  101497:	fa                   	cli    
  101498:	6a 00                	push   $0x0
  10149a:	68 0f 00 00 00       	push   $0xf
  10149f:	e9 7d 01 00 00       	jmp    101621 <isr_common_stub>

001014a4 <isr16>:
  1014a4:	fa                   	cli    
  1014a5:	6a 00                	push   $0x0
  1014a7:	68 10 00 00 00       	push   $0x10
  1014ac:	e9 70 01 00 00       	jmp    101621 <isr_common_stub>

001014b1 <isr17>:
  1014b1:	fa                   	cli    
  1014b2:	6a 00                	push   $0x0
  1014b4:	68 11 00 00 00       	push   $0x11
  1014b9:	e9 63 01 00 00       	jmp    101621 <isr_common_stub>

001014be <isr18>:
  1014be:	fa                   	cli    
  1014bf:	6a 00                	push   $0x0
  1014c1:	68 12 00 00 00       	push   $0x12
  1014c6:	e9 56 01 00 00       	jmp    101621 <isr_common_stub>

001014cb <isr19>:
  1014cb:	fa                   	cli    
  1014cc:	6a 00                	push   $0x0
  1014ce:	68 13 00 00 00       	push   $0x13
  1014d3:	e9 49 01 00 00       	jmp    101621 <isr_common_stub>

001014d8 <isr20>:
  1014d8:	fa                   	cli    
  1014d9:	6a 00                	push   $0x0
  1014db:	68 14 00 00 00       	push   $0x14
  1014e0:	e9 3c 01 00 00       	jmp    101621 <isr_common_stub>

001014e5 <isr21>:
  1014e5:	fa                   	cli    
  1014e6:	6a 00                	push   $0x0
  1014e8:	68 15 00 00 00       	push   $0x15
  1014ed:	e9 2f 01 00 00       	jmp    101621 <isr_common_stub>

001014f2 <isr22>:
  1014f2:	fa                   	cli    
  1014f3:	6a 00                	push   $0x0
  1014f5:	68 16 00 00 00       	push   $0x16
  1014fa:	e9 22 01 00 00       	jmp    101621 <isr_common_stub>

001014ff <isr23>:
  1014ff:	fa                   	cli    
  101500:	6a 00                	push   $0x0
  101502:	68 17 00 00 00       	push   $0x17
  101507:	e9 15 01 00 00       	jmp    101621 <isr_common_stub>

0010150c <isr24>:
  10150c:	fa                   	cli    
  10150d:	6a 00                	push   $0x0
  10150f:	68 18 00 00 00       	push   $0x18
  101514:	e9 08 01 00 00       	jmp    101621 <isr_common_stub>

00101519 <isr25>:
  101519:	fa                   	cli    
  10151a:	6a 00                	push   $0x0
  10151c:	68 19 00 00 00       	push   $0x19
  101521:	e9 fb 00 00 00       	jmp    101621 <isr_common_stub>

00101526 <isr26>:
  101526:	fa                   	cli    
  101527:	6a 00                	push   $0x0
  101529:	68 1a 00 00 00       	push   $0x1a
  10152e:	e9 ee 00 00 00       	jmp    101621 <isr_common_stub>

00101533 <isr27>:
  101533:	fa                   	cli    
  101534:	6a 00                	push   $0x0
  101536:	68 1b 00 00 00       	push   $0x1b
  10153b:	e9 e1 00 00 00       	jmp    101621 <isr_common_stub>

00101540 <isr28>:
  101540:	fa                   	cli    
  101541:	6a 00                	push   $0x0
  101543:	68 1c 00 00 00       	push   $0x1c
  101548:	e9 d4 00 00 00       	jmp    101621 <isr_common_stub>

0010154d <isr29>:
  10154d:	fa                   	cli    
  10154e:	6a 00                	push   $0x0
  101550:	68 1d 00 00 00       	push   $0x1d
  101555:	e9 c7 00 00 00       	jmp    101621 <isr_common_stub>

0010155a <isr30>:
  10155a:	fa                   	cli    
  10155b:	6a 00                	push   $0x0
  10155d:	68 1e 00 00 00       	push   $0x1e
  101562:	e9 ba 00 00 00       	jmp    101621 <isr_common_stub>

00101567 <isr31>:
  101567:	fa                   	cli    
  101568:	6a 00                	push   $0x0
  10156a:	68 1f 00 00 00       	push   $0x1f
  10156f:	e9 ad 00 00 00       	jmp    101621 <isr_common_stub>

00101574 <isr128>:
  101574:	fa                   	cli    
  101575:	6a 00                	push   $0x0
  101577:	68 80 00 00 00       	push   $0x80
  10157c:	e9 a0 00 00 00       	jmp    101621 <isr_common_stub>

00101581 <irq0>:
  101581:	fa                   	cli    
  101582:	6a 00                	push   $0x0
  101584:	6a 20                	push   $0x20
  101586:	e9 be 00 00 00       	jmp    101649 <irq_common_stub>

0010158b <irq1>:
  10158b:	fa                   	cli    
  10158c:	6a 00                	push   $0x0
  10158e:	6a 21                	push   $0x21
  101590:	e9 b4 00 00 00       	jmp    101649 <irq_common_stub>

00101595 <irq2>:
  101595:	fa                   	cli    
  101596:	6a 00                	push   $0x0
  101598:	6a 22                	push   $0x22
  10159a:	e9 aa 00 00 00       	jmp    101649 <irq_common_stub>

0010159f <irq3>:
  10159f:	fa                   	cli    
  1015a0:	6a 00                	push   $0x0
  1015a2:	6a 23                	push   $0x23
  1015a4:	e9 a0 00 00 00       	jmp    101649 <irq_common_stub>

001015a9 <irq4>:
  1015a9:	fa                   	cli    
  1015aa:	6a 00                	push   $0x0
  1015ac:	6a 24                	push   $0x24
  1015ae:	e9 96 00 00 00       	jmp    101649 <irq_common_stub>

001015b3 <irq5>:
  1015b3:	fa                   	cli    
  1015b4:	6a 00                	push   $0x0
  1015b6:	6a 25                	push   $0x25
  1015b8:	e9 8c 00 00 00       	jmp    101649 <irq_common_stub>

001015bd <irq6>:
  1015bd:	fa                   	cli    
  1015be:	6a 00                	push   $0x0
  1015c0:	6a 26                	push   $0x26
  1015c2:	e9 82 00 00 00       	jmp    101649 <irq_common_stub>

001015c7 <irq7>:
  1015c7:	fa                   	cli    
  1015c8:	6a 00                	push   $0x0
  1015ca:	6a 27                	push   $0x27
  1015cc:	e9 78 00 00 00       	jmp    101649 <irq_common_stub>

001015d1 <irq8>:
  1015d1:	fa                   	cli    
  1015d2:	6a 00                	push   $0x0
  1015d4:	6a 28                	push   $0x28
  1015d6:	e9 6e 00 00 00       	jmp    101649 <irq_common_stub>

001015db <irq9>:
  1015db:	fa                   	cli    
  1015dc:	6a 00                	push   $0x0
  1015de:	6a 29                	push   $0x29
  1015e0:	e9 64 00 00 00       	jmp    101649 <irq_common_stub>

001015e5 <irq10>:
  1015e5:	fa                   	cli    
  1015e6:	6a 00                	push   $0x0
  1015e8:	6a 2a                	push   $0x2a
  1015ea:	e9 5a 00 00 00       	jmp    101649 <irq_common_stub>

001015ef <irq11>:
  1015ef:	fa                   	cli    
  1015f0:	6a 00                	push   $0x0
  1015f2:	6a 2b                	push   $0x2b
  1015f4:	e9 50 00 00 00       	jmp    101649 <irq_common_stub>

001015f9 <irq12>:
  1015f9:	fa                   	cli    
  1015fa:	6a 00                	push   $0x0
  1015fc:	6a 2c                	push   $0x2c
  1015fe:	e9 46 00 00 00       	jmp    101649 <irq_common_stub>

00101603 <irq13>:
  101603:	fa                   	cli    
  101604:	6a 00                	push   $0x0
  101606:	6a 2d                	push   $0x2d
  101608:	e9 3c 00 00 00       	jmp    101649 <irq_common_stub>

0010160d <irq14>:
  10160d:	fa                   	cli    
  10160e:	6a 00                	push   $0x0
  101610:	6a 2e                	push   $0x2e
  101612:	e9 32 00 00 00       	jmp    101649 <irq_common_stub>

00101617 <irq15>:
  101617:	fa                   	cli    
  101618:	6a 00                	push   $0x0
  10161a:	6a 2f                	push   $0x2f
  10161c:	e9 28 00 00 00       	jmp    101649 <irq_common_stub>

00101621 <isr_common_stub>:
  101621:	60                   	pusha  
  101622:	66 8c d8             	mov    %ds,%ax
  101625:	50                   	push   %eax
  101626:	66 b8 10 00          	mov    $0x10,%ax
  10162a:	8e d8                	mov    %eax,%ds
  10162c:	8e c0                	mov    %eax,%es
  10162e:	8e e0                	mov    %eax,%fs
  101630:	8e e8                	mov    %eax,%gs
  101632:	e8 e9 fc ff ff       	call   101320 <isr_handler>
  101637:	5b                   	pop    %ebx
  101638:	8e db                	mov    %ebx,%ds
  10163a:	8e c3                	mov    %ebx,%es
  10163c:	8e e3                	mov    %ebx,%fs
  10163e:	8e eb                	mov    %ebx,%gs
  101640:	61                   	popa   
  101641:	81 c4 08 00 00 00    	add    $0x8,%esp
  101647:	fb                   	sti    
  101648:	cf                   	iret   

00101649 <irq_common_stub>:
  101649:	60                   	pusha  
  10164a:	66 8c d8             	mov    %ds,%ax
  10164d:	50                   	push   %eax
  10164e:	66 b8 10 00          	mov    $0x10,%ax
  101652:	8e d8                	mov    %eax,%ds
  101654:	8e c0                	mov    %eax,%es
  101656:	8e e0                	mov    %eax,%fs
  101658:	8e e8                	mov    %eax,%gs
  10165a:	e8 1f fd ff ff       	call   10137e <irq_handler>
  10165f:	5b                   	pop    %ebx
  101660:	8e db                	mov    %ebx,%ds
  101662:	8e c3                	mov    %ebx,%es
  101664:	8e e3                	mov    %ebx,%fs
  101666:	8e eb                	mov    %ebx,%gs
  101668:	61                   	popa   
  101669:	81 c4 08 00 00 00    	add    $0x8,%esp
  10166f:	fb                   	sti    
  101670:	cf                   	iret   
	...

00101680 <gdt_flush>:
  101680:	8b 44 24 04          	mov    0x4(%esp),%eax
  101684:	0f 01 10             	lgdtl  (%eax)
  101687:	66 b8 10 00          	mov    $0x10,%ax
  10168b:	8e d8                	mov    %eax,%ds
  10168d:	8e c0                	mov    %eax,%es
  10168f:	8e e0                	mov    %eax,%fs
  101691:	8e e8                	mov    %eax,%gs
  101693:	8e d0                	mov    %eax,%ss
  101695:	ea 9c 16 10 00 08 00 	ljmp   $0x8,$0x10169c

0010169c <gdt_flush.flush>:
  10169c:	c3                   	ret    

0010169d <idt_flush>:
  10169d:	8b 44 24 04          	mov    0x4(%esp),%eax
  1016a1:	0f 01 18             	lidtl  (%eax)
  1016a4:	c3                   	ret    

001016a5 <tss_flush>:
  1016a5:	66 b8 2b 00          	mov    $0x2b,%ax
  1016a9:	0f 00 d8             	ltr    %ax
  1016ac:	c3                   	ret    
  1016ad:	00 00                	add    %al,(%eax)
	...

001016b0 <timer_callback>:
  1016b0:	55                   	push   %ebp
  1016b1:	89 e5                	mov    %esp,%ebp
  1016b3:	83 ec 08             	sub    $0x8,%esp
  1016b6:	a1 04 50 10 00       	mov    0x105004,%eax
  1016bb:	40                   	inc    %eax
  1016bc:	a3 04 50 10 00       	mov    %eax,0x105004
  1016c1:	e8 59 20 00 00       	call   10371f <switch_task>
  1016c6:	c9                   	leave  
  1016c7:	c3                   	ret    

001016c8 <init_timer>:
  1016c8:	55                   	push   %ebp
  1016c9:	89 e5                	mov    %esp,%ebp
  1016cb:	83 ec 18             	sub    $0x18,%esp
  1016ce:	c7 44 24 04 b0 16 10 	movl   $0x1016b0,0x4(%esp)
  1016d5:	00 
  1016d6:	c7 04 24 20 00 00 00 	movl   $0x20,(%esp)
  1016dd:	e8 22 fc ff ff       	call   101304 <register_interrupt_handler>
  1016e2:	b8 dc 34 12 00       	mov    $0x1234dc,%eax
  1016e7:	ba 00 00 00 00       	mov    $0x0,%edx
  1016ec:	f7 75 08             	divl   0x8(%ebp)
  1016ef:	89 45 f8             	mov    %eax,-0x8(%ebp)
  1016f2:	c7 44 24 04 36 00 00 	movl   $0x36,0x4(%esp)
  1016f9:	00 
  1016fa:	c7 04 24 43 00 00 00 	movl   $0x43,(%esp)
  101701:	e8 42 ee ff ff       	call   100548 <outb>
  101706:	8b 45 f8             	mov    -0x8(%ebp),%eax
  101709:	88 45 fe             	mov    %al,-0x2(%ebp)
  10170c:	8b 45 f8             	mov    -0x8(%ebp),%eax
  10170f:	c1 e8 08             	shr    $0x8,%eax
  101712:	88 45 ff             	mov    %al,-0x1(%ebp)
  101715:	0f b6 45 fe          	movzbl -0x2(%ebp),%eax
  101719:	89 44 24 04          	mov    %eax,0x4(%esp)
  10171d:	c7 04 24 40 00 00 00 	movl   $0x40,(%esp)
  101724:	e8 1f ee ff ff       	call   100548 <outb>
  101729:	0f b6 45 ff          	movzbl -0x1(%ebp),%eax
  10172d:	89 44 24 04          	mov    %eax,0x4(%esp)
  101731:	c7 04 24 40 00 00 00 	movl   $0x40,(%esp)
  101738:	e8 0b ee ff ff       	call   100548 <outb>
  10173d:	c9                   	leave  
  10173e:	c3                   	ret    
	...

00101740 <kmalloc_int>:
  101740:	55                   	push   %ebp
  101741:	89 e5                	mov    %esp,%ebp
  101743:	83 ec 28             	sub    $0x28,%esp
  101746:	a1 08 50 10 00       	mov    0x105008,%eax
  10174b:	85 c0                	test   %eax,%eax
  10174d:	74 6c                	je     1017bb <kmalloc_int+0x7b>
  10174f:	8b 15 08 50 10 00    	mov    0x105008,%edx
  101755:	8b 45 0c             	mov    0xc(%ebp),%eax
  101758:	0f b6 c0             	movzbl %al,%eax
  10175b:	89 54 24 08          	mov    %edx,0x8(%esp)
  10175f:	89 44 24 04          	mov    %eax,0x4(%esp)
  101763:	8b 45 08             	mov    0x8(%ebp),%eax
  101766:	89 04 24             	mov    %eax,(%esp)
  101769:	e8 4e 05 00 00       	call   101cbc <alloc>
  10176e:	89 45 f4             	mov    %eax,-0xc(%ebp)
  101771:	83 7d 10 00          	cmpl   $0x0,0x10(%ebp)
  101775:	74 3c                	je     1017b3 <kmalloc_int+0x73>
  101777:	8b 15 0c 50 10 00    	mov    0x10500c,%edx
  10177d:	8b 45 f4             	mov    -0xc(%ebp),%eax
  101780:	89 54 24 08          	mov    %edx,0x8(%esp)
  101784:	c7 44 24 04 00 00 00 	movl   $0x0,0x4(%esp)
  10178b:	00 
  10178c:	89 04 24             	mov    %eax,(%esp)
  10178f:	e8 33 0f 00 00       	call   1026c7 <get_page>
  101794:	89 45 f8             	mov    %eax,-0x8(%ebp)
  101797:	8b 45 f8             	mov    -0x8(%ebp),%eax
  10179a:	8b 00                	mov    (%eax),%eax
  10179c:	c1 e8 0c             	shr    $0xc,%eax
  10179f:	c1 e0 0c             	shl    $0xc,%eax
  1017a2:	89 c2                	mov    %eax,%edx
  1017a4:	8b 45 f4             	mov    -0xc(%ebp),%eax
  1017a7:	25 ff 0f 00 00       	and    $0xfff,%eax
  1017ac:	01 c2                	add    %eax,%edx
  1017ae:	8b 45 10             	mov    0x10(%ebp),%eax
  1017b1:	89 10                	mov    %edx,(%eax)
  1017b3:	8b 45 f4             	mov    -0xc(%ebp),%eax
  1017b6:	89 45 ec             	mov    %eax,-0x14(%ebp)
  1017b9:	eb 5e                	jmp    101819 <kmalloc_int+0xd9>
  1017bb:	83 7d 0c 01          	cmpl   $0x1,0xc(%ebp)
  1017bf:	75 2c                	jne    1017ed <kmalloc_int+0xad>
  1017c1:	a1 04 40 10 00       	mov    0x104004,%eax
  1017c6:	25 00 f0 ff ff       	and    $0xfffff000,%eax
  1017cb:	85 c0                	test   %eax,%eax
  1017cd:	74 1e                	je     1017ed <kmalloc_int+0xad>
  1017cf:	a1 04 40 10 00       	mov    0x104004,%eax
  1017d4:	25 00 f0 ff ff       	and    $0xfffff000,%eax
  1017d9:	a3 04 40 10 00       	mov    %eax,0x104004
  1017de:	a1 04 40 10 00       	mov    0x104004,%eax
  1017e3:	05 00 10 00 00       	add    $0x1000,%eax
  1017e8:	a3 04 40 10 00       	mov    %eax,0x104004
  1017ed:	83 7d 10 00          	cmpl   $0x0,0x10(%ebp)
  1017f1:	74 0b                	je     1017fe <kmalloc_int+0xbe>
  1017f3:	8b 15 04 40 10 00    	mov    0x104004,%edx
  1017f9:	8b 45 10             	mov    0x10(%ebp),%eax
  1017fc:	89 10                	mov    %edx,(%eax)
  1017fe:	a1 04 40 10 00       	mov    0x104004,%eax
  101803:	89 45 fc             	mov    %eax,-0x4(%ebp)
  101806:	a1 04 40 10 00       	mov    0x104004,%eax
  10180b:	03 45 08             	add    0x8(%ebp),%eax
  10180e:	a3 04 40 10 00       	mov    %eax,0x104004
  101813:	8b 45 fc             	mov    -0x4(%ebp),%eax
  101816:	89 45 ec             	mov    %eax,-0x14(%ebp)
  101819:	8b 45 ec             	mov    -0x14(%ebp),%eax
  10181c:	c9                   	leave  
  10181d:	c3                   	ret    

0010181e <kfree>:
  10181e:	55                   	push   %ebp
  10181f:	89 e5                	mov    %esp,%ebp
  101821:	83 ec 08             	sub    $0x8,%esp
  101824:	a1 08 50 10 00       	mov    0x105008,%eax
  101829:	89 44 24 04          	mov    %eax,0x4(%esp)
  10182d:	8b 45 08             	mov    0x8(%ebp),%eax
  101830:	89 04 24             	mov    %eax,(%esp)
  101833:	e8 c4 07 00 00       	call   101ffc <free>
  101838:	c9                   	leave  
  101839:	c3                   	ret    

0010183a <kmalloc_a>:
  10183a:	55                   	push   %ebp
  10183b:	89 e5                	mov    %esp,%ebp
  10183d:	83 ec 18             	sub    $0x18,%esp
  101840:	c7 44 24 08 00 00 00 	movl   $0x0,0x8(%esp)
  101847:	00 
  101848:	c7 44 24 04 01 00 00 	movl   $0x1,0x4(%esp)
  10184f:	00 
  101850:	8b 45 08             	mov    0x8(%ebp),%eax
  101853:	89 04 24             	mov    %eax,(%esp)
  101856:	e8 e5 fe ff ff       	call   101740 <kmalloc_int>
  10185b:	c9                   	leave  
  10185c:	c3                   	ret    

0010185d <kmalloc_p>:
  10185d:	55                   	push   %ebp
  10185e:	89 e5                	mov    %esp,%ebp
  101860:	83 ec 18             	sub    $0x18,%esp
  101863:	8b 45 0c             	mov    0xc(%ebp),%eax
  101866:	89 44 24 08          	mov    %eax,0x8(%esp)
  10186a:	c7 44 24 04 00 00 00 	movl   $0x0,0x4(%esp)
  101871:	00 
  101872:	8b 45 08             	mov    0x8(%ebp),%eax
  101875:	89 04 24             	mov    %eax,(%esp)
  101878:	e8 c3 fe ff ff       	call   101740 <kmalloc_int>
  10187d:	c9                   	leave  
  10187e:	c3                   	ret    

0010187f <kmalloc_ap>:
  10187f:	55                   	push   %ebp
  101880:	89 e5                	mov    %esp,%ebp
  101882:	83 ec 18             	sub    $0x18,%esp
  101885:	8b 45 0c             	mov    0xc(%ebp),%eax
  101888:	89 44 24 08          	mov    %eax,0x8(%esp)
  10188c:	c7 44 24 04 01 00 00 	movl   $0x1,0x4(%esp)
  101893:	00 
  101894:	8b 45 08             	mov    0x8(%ebp),%eax
  101897:	89 04 24             	mov    %eax,(%esp)
  10189a:	e8 a1 fe ff ff       	call   101740 <kmalloc_int>
  10189f:	c9                   	leave  
  1018a0:	c3                   	ret    

001018a1 <kmalloc>:
  1018a1:	55                   	push   %ebp
  1018a2:	89 e5                	mov    %esp,%ebp
  1018a4:	83 ec 18             	sub    $0x18,%esp
  1018a7:	c7 44 24 08 00 00 00 	movl   $0x0,0x8(%esp)
  1018ae:	00 
  1018af:	c7 44 24 04 00 00 00 	movl   $0x0,0x4(%esp)
  1018b6:	00 
  1018b7:	8b 45 08             	mov    0x8(%ebp),%eax
  1018ba:	89 04 24             	mov    %eax,(%esp)
  1018bd:	e8 7e fe ff ff       	call   101740 <kmalloc_int>
  1018c2:	c9                   	leave  
  1018c3:	c3                   	ret    

001018c4 <expand>:
  1018c4:	55                   	push   %ebp
  1018c5:	89 e5                	mov    %esp,%ebp
  1018c7:	56                   	push   %esi
  1018c8:	53                   	push   %ebx
  1018c9:	83 ec 20             	sub    $0x20,%esp
  1018cc:	8b 45 0c             	mov    0xc(%ebp),%eax
  1018cf:	8b 50 14             	mov    0x14(%eax),%edx
  1018d2:	8b 45 0c             	mov    0xc(%ebp),%eax
  1018d5:	8b 40 10             	mov    0x10(%eax),%eax
  1018d8:	89 d1                	mov    %edx,%ecx
  1018da:	29 c1                	sub    %eax,%ecx
  1018dc:	89 c8                	mov    %ecx,%eax
  1018de:	3b 45 08             	cmp    0x8(%ebp),%eax
  1018e1:	72 1c                	jb     1018ff <expand+0x3b>
  1018e3:	c7 44 24 08 90 40 10 	movl   $0x104090,0x8(%esp)
  1018ea:	00 
  1018eb:	c7 44 24 04 49 00 00 	movl   $0x49,0x4(%esp)
  1018f2:	00 
  1018f3:	c7 04 24 c3 40 10 00 	movl   $0x1040c3,(%esp)
  1018fa:	e8 69 ee ff ff       	call   100768 <panic_assert>
  1018ff:	8b 45 08             	mov    0x8(%ebp),%eax
  101902:	83 e0 01             	and    $0x1,%eax
  101905:	84 c0                	test   %al,%al
  101907:	74 0e                	je     101917 <expand+0x53>
  101909:	81 65 08 00 f0 ff ff 	andl   $0xfffff000,0x8(%ebp)
  101910:	81 45 08 00 10 00 00 	addl   $0x1000,0x8(%ebp)
  101917:	8b 45 0c             	mov    0xc(%ebp),%eax
  10191a:	8b 40 10             	mov    0x10(%eax),%eax
  10191d:	89 c2                	mov    %eax,%edx
  10191f:	03 55 08             	add    0x8(%ebp),%edx
  101922:	8b 45 0c             	mov    0xc(%ebp),%eax
  101925:	8b 40 18             	mov    0x18(%eax),%eax
  101928:	39 c2                	cmp    %eax,%edx
  10192a:	76 1c                	jbe    101948 <expand+0x84>
  10192c:	c7 44 24 08 cc 40 10 	movl   $0x1040cc,0x8(%esp)
  101933:	00 
  101934:	c7 44 24 04 53 00 00 	movl   $0x53,0x4(%esp)
  10193b:	00 
  10193c:	c7 04 24 c3 40 10 00 	movl   $0x1040c3,(%esp)
  101943:	e8 20 ee ff ff       	call   100768 <panic_assert>
  101948:	8b 45 0c             	mov    0xc(%ebp),%eax
  10194b:	8b 50 14             	mov    0x14(%eax),%edx
  10194e:	8b 45 0c             	mov    0xc(%ebp),%eax
  101951:	8b 40 10             	mov    0x10(%eax),%eax
  101954:	89 d1                	mov    %edx,%ecx
  101956:	29 c1                	sub    %eax,%ecx
  101958:	89 c8                	mov    %ecx,%eax
  10195a:	89 45 f0             	mov    %eax,-0x10(%ebp)
  10195d:	8b 45 f0             	mov    -0x10(%ebp),%eax
  101960:	89 45 f4             	mov    %eax,-0xc(%ebp)
  101963:	eb 58                	jmp    1019bd <expand+0xf9>
  101965:	8b 45 0c             	mov    0xc(%ebp),%eax
  101968:	0f b6 40 1d          	movzbl 0x1d(%eax),%eax
  10196c:	84 c0                	test   %al,%al
  10196e:	0f 94 c0             	sete   %al
  101971:	0f b6 d8             	movzbl %al,%ebx
  101974:	8b 45 0c             	mov    0xc(%ebp),%eax
  101977:	0f b6 40 1c          	movzbl 0x1c(%eax),%eax
  10197b:	84 c0                	test   %al,%al
  10197d:	0f 95 c0             	setne  %al
  101980:	0f b6 f0             	movzbl %al,%esi
  101983:	8b 15 0c 50 10 00    	mov    0x10500c,%edx
  101989:	8b 45 0c             	mov    0xc(%ebp),%eax
  10198c:	8b 40 10             	mov    0x10(%eax),%eax
  10198f:	03 45 f4             	add    -0xc(%ebp),%eax
  101992:	89 54 24 08          	mov    %edx,0x8(%esp)
  101996:	c7 44 24 04 01 00 00 	movl   $0x1,0x4(%esp)
  10199d:	00 
  10199e:	89 04 24             	mov    %eax,(%esp)
  1019a1:	e8 21 0d 00 00       	call   1026c7 <get_page>
  1019a6:	89 5c 24 08          	mov    %ebx,0x8(%esp)
  1019aa:	89 74 24 04          	mov    %esi,0x4(%esp)
  1019ae:	89 04 24             	mov    %eax,(%esp)
  1019b1:	e8 50 0a 00 00       	call   102406 <alloc_frame>
  1019b6:	81 45 f4 00 10 00 00 	addl   $0x1000,-0xc(%ebp)
  1019bd:	8b 45 f4             	mov    -0xc(%ebp),%eax
  1019c0:	3b 45 08             	cmp    0x8(%ebp),%eax
  1019c3:	72 a0                	jb     101965 <expand+0xa1>
  1019c5:	8b 45 0c             	mov    0xc(%ebp),%eax
  1019c8:	8b 40 10             	mov    0x10(%eax),%eax
  1019cb:	89 c2                	mov    %eax,%edx
  1019cd:	03 55 08             	add    0x8(%ebp),%edx
  1019d0:	8b 45 0c             	mov    0xc(%ebp),%eax
  1019d3:	89 50 14             	mov    %edx,0x14(%eax)
  1019d6:	83 c4 20             	add    $0x20,%esp
  1019d9:	5b                   	pop    %ebx
  1019da:	5e                   	pop    %esi
  1019db:	5d                   	pop    %ebp
  1019dc:	c3                   	ret    

001019dd <contract>:
  1019dd:	55                   	push   %ebp
  1019de:	89 e5                	mov    %esp,%ebp
  1019e0:	83 ec 28             	sub    $0x28,%esp
  1019e3:	8b 45 0c             	mov    0xc(%ebp),%eax
  1019e6:	8b 50 14             	mov    0x14(%eax),%edx
  1019e9:	8b 45 0c             	mov    0xc(%ebp),%eax
  1019ec:	8b 40 10             	mov    0x10(%eax),%eax
  1019ef:	89 d1                	mov    %edx,%ecx
  1019f1:	29 c1                	sub    %eax,%ecx
  1019f3:	89 c8                	mov    %ecx,%eax
  1019f5:	3b 45 08             	cmp    0x8(%ebp),%eax
  1019f8:	77 1c                	ja     101a16 <contract+0x39>
  1019fa:	c7 44 24 08 00 41 10 	movl   $0x104100,0x8(%esp)
  101a01:	00 
  101a02:	c7 44 24 04 65 00 00 	movl   $0x65,0x4(%esp)
  101a09:	00 
  101a0a:	c7 04 24 c3 40 10 00 	movl   $0x1040c3,(%esp)
  101a11:	e8 52 ed ff ff       	call   100768 <panic_assert>
  101a16:	8b 45 08             	mov    0x8(%ebp),%eax
  101a19:	25 00 10 00 00       	and    $0x1000,%eax
  101a1e:	85 c0                	test   %eax,%eax
  101a20:	74 0e                	je     101a30 <contract+0x53>
  101a22:	81 65 08 00 10 00 00 	andl   $0x1000,0x8(%ebp)
  101a29:	81 45 08 00 10 00 00 	addl   $0x1000,0x8(%ebp)
  101a30:	81 7d 08 ff ff 06 00 	cmpl   $0x6ffff,0x8(%ebp)
  101a37:	77 07                	ja     101a40 <contract+0x63>
  101a39:	c7 45 08 00 00 07 00 	movl   $0x70000,0x8(%ebp)
  101a40:	8b 45 0c             	mov    0xc(%ebp),%eax
  101a43:	8b 50 14             	mov    0x14(%eax),%edx
  101a46:	8b 45 0c             	mov    0xc(%ebp),%eax
  101a49:	8b 40 10             	mov    0x10(%eax),%eax
  101a4c:	89 d1                	mov    %edx,%ecx
  101a4e:	29 c1                	sub    %eax,%ecx
  101a50:	89 c8                	mov    %ecx,%eax
  101a52:	89 45 f8             	mov    %eax,-0x8(%ebp)
  101a55:	8b 45 f8             	mov    -0x8(%ebp),%eax
  101a58:	2d 00 10 00 00       	sub    $0x1000,%eax
  101a5d:	89 45 fc             	mov    %eax,-0x4(%ebp)
  101a60:	eb 32                	jmp    101a94 <contract+0xb7>
  101a62:	8b 15 0c 50 10 00    	mov    0x10500c,%edx
  101a68:	8b 45 0c             	mov    0xc(%ebp),%eax
  101a6b:	8b 40 10             	mov    0x10(%eax),%eax
  101a6e:	03 45 fc             	add    -0x4(%ebp),%eax
  101a71:	89 54 24 08          	mov    %edx,0x8(%esp)
  101a75:	c7 44 24 04 00 00 00 	movl   $0x0,0x4(%esp)
  101a7c:	00 
  101a7d:	89 04 24             	mov    %eax,(%esp)
  101a80:	e8 42 0c 00 00       	call   1026c7 <get_page>
  101a85:	89 04 24             	mov    %eax,(%esp)
  101a88:	e8 fd 09 00 00       	call   10248a <free_frame>
  101a8d:	81 6d fc 00 10 00 00 	subl   $0x1000,-0x4(%ebp)
  101a94:	8b 45 08             	mov    0x8(%ebp),%eax
  101a97:	3b 45 fc             	cmp    -0x4(%ebp),%eax
  101a9a:	72 c6                	jb     101a62 <contract+0x85>
  101a9c:	8b 45 0c             	mov    0xc(%ebp),%eax
  101a9f:	8b 40 10             	mov    0x10(%eax),%eax
  101aa2:	89 c2                	mov    %eax,%edx
  101aa4:	03 55 08             	add    0x8(%ebp),%edx
  101aa7:	8b 45 0c             	mov    0xc(%ebp),%eax
  101aaa:	89 50 14             	mov    %edx,0x14(%eax)
  101aad:	8b 45 08             	mov    0x8(%ebp),%eax
  101ab0:	c9                   	leave  
  101ab1:	c3                   	ret    

00101ab2 <find_smallest_hole>:
  101ab2:	55                   	push   %ebp
  101ab3:	89 e5                	mov    %esp,%ebp
  101ab5:	83 ec 38             	sub    $0x38,%esp
  101ab8:	8b 45 0c             	mov    0xc(%ebp),%eax
  101abb:	88 45 dc             	mov    %al,-0x24(%ebp)
  101abe:	c7 45 ec 00 00 00 00 	movl   $0x0,-0x14(%ebp)
  101ac5:	eb 71                	jmp    101b38 <find_smallest_hole+0x86>
  101ac7:	8b 45 10             	mov    0x10(%ebp),%eax
  101aca:	89 44 24 04          	mov    %eax,0x4(%esp)
  101ace:	8b 45 ec             	mov    -0x14(%ebp),%eax
  101ad1:	89 04 24             	mov    %eax,(%esp)
  101ad4:	e8 07 12 00 00       	call   102ce0 <lookup_ordered_array>
  101ad9:	89 45 f0             	mov    %eax,-0x10(%ebp)
  101adc:	80 7d dc 00          	cmpb   $0x0,-0x24(%ebp)
  101ae0:	74 48                	je     101b2a <find_smallest_hole+0x78>
  101ae2:	8b 45 f0             	mov    -0x10(%ebp),%eax
  101ae5:	89 45 f4             	mov    %eax,-0xc(%ebp)
  101ae8:	c7 45 f8 00 00 00 00 	movl   $0x0,-0x8(%ebp)
  101aef:	8b 45 f4             	mov    -0xc(%ebp),%eax
  101af2:	83 c0 0c             	add    $0xc,%eax
  101af5:	83 e0 01             	and    $0x1,%eax
  101af8:	84 c0                	test   %al,%al
  101afa:	74 18                	je     101b14 <find_smallest_hole+0x62>
  101afc:	8b 45 f4             	mov    -0xc(%ebp),%eax
  101aff:	83 c0 0c             	add    $0xc,%eax
  101b02:	89 c2                	mov    %eax,%edx
  101b04:	81 e2 ff 0f 00 00    	and    $0xfff,%edx
  101b0a:	b8 00 10 00 00       	mov    $0x1000,%eax
  101b0f:	29 d0                	sub    %edx,%eax
  101b11:	89 45 f8             	mov    %eax,-0x8(%ebp)
  101b14:	8b 45 f0             	mov    -0x10(%ebp),%eax
  101b17:	8b 40 08             	mov    0x8(%eax),%eax
  101b1a:	2b 45 f8             	sub    -0x8(%ebp),%eax
  101b1d:	89 45 fc             	mov    %eax,-0x4(%ebp)
  101b20:	8b 45 08             	mov    0x8(%ebp),%eax
  101b23:	3b 45 fc             	cmp    -0x4(%ebp),%eax
  101b26:	7e 1b                	jle    101b43 <find_smallest_hole+0x91>
  101b28:	eb 0b                	jmp    101b35 <find_smallest_hole+0x83>
  101b2a:	8b 45 f0             	mov    -0x10(%ebp),%eax
  101b2d:	8b 40 08             	mov    0x8(%eax),%eax
  101b30:	3b 45 08             	cmp    0x8(%ebp),%eax
  101b33:	73 0e                	jae    101b43 <find_smallest_hole+0x91>
  101b35:	ff 45 ec             	incl   -0x14(%ebp)
  101b38:	8b 45 10             	mov    0x10(%ebp),%eax
  101b3b:	8b 40 04             	mov    0x4(%eax),%eax
  101b3e:	3b 45 ec             	cmp    -0x14(%ebp),%eax
  101b41:	77 84                	ja     101ac7 <find_smallest_hole+0x15>
  101b43:	8b 45 10             	mov    0x10(%ebp),%eax
  101b46:	8b 40 04             	mov    0x4(%eax),%eax
  101b49:	3b 45 ec             	cmp    -0x14(%ebp),%eax
  101b4c:	75 09                	jne    101b57 <find_smallest_hole+0xa5>
  101b4e:	c7 45 d8 ff ff ff ff 	movl   $0xffffffff,-0x28(%ebp)
  101b55:	eb 06                	jmp    101b5d <find_smallest_hole+0xab>
  101b57:	8b 45 ec             	mov    -0x14(%ebp),%eax
  101b5a:	89 45 d8             	mov    %eax,-0x28(%ebp)
  101b5d:	8b 45 d8             	mov    -0x28(%ebp),%eax
  101b60:	c9                   	leave  
  101b61:	c3                   	ret    

00101b62 <header_t_less_than>:
  101b62:	55                   	push   %ebp
  101b63:	89 e5                	mov    %esp,%ebp
  101b65:	8b 45 08             	mov    0x8(%ebp),%eax
  101b68:	8b 50 08             	mov    0x8(%eax),%edx
  101b6b:	8b 45 0c             	mov    0xc(%ebp),%eax
  101b6e:	8b 40 08             	mov    0x8(%eax),%eax
  101b71:	39 c2                	cmp    %eax,%edx
  101b73:	0f 92 c0             	setb   %al
  101b76:	0f b6 c0             	movzbl %al,%eax
  101b79:	5d                   	pop    %ebp
  101b7a:	c3                   	ret    

00101b7b <create_heap>:
  101b7b:	55                   	push   %ebp
  101b7c:	89 e5                	mov    %esp,%ebp
  101b7e:	53                   	push   %ebx
  101b7f:	83 ec 44             	sub    $0x44,%esp
  101b82:	8b 45 14             	mov    0x14(%ebp),%eax
  101b85:	8b 55 18             	mov    0x18(%ebp),%edx
  101b88:	88 45 e4             	mov    %al,-0x1c(%ebp)
  101b8b:	88 55 e0             	mov    %dl,-0x20(%ebp)
  101b8e:	c7 04 24 20 00 00 00 	movl   $0x20,(%esp)
  101b95:	e8 07 fd ff ff       	call   1018a1 <kmalloc>
  101b9a:	89 45 f0             	mov    %eax,-0x10(%ebp)
  101b9d:	8b 45 08             	mov    0x8(%ebp),%eax
  101ba0:	25 ff 0f 00 00       	and    $0xfff,%eax
  101ba5:	85 c0                	test   %eax,%eax
  101ba7:	74 1c                	je     101bc5 <create_heap+0x4a>
  101ba9:	c7 44 24 08 31 41 10 	movl   $0x104131,0x8(%esp)
  101bb0:	00 
  101bb1:	c7 44 24 04 a7 00 00 	movl   $0xa7,0x4(%esp)
  101bb8:	00 
  101bb9:	c7 04 24 c3 40 10 00 	movl   $0x1040c3,(%esp)
  101bc0:	e8 a3 eb ff ff       	call   100768 <panic_assert>
  101bc5:	8b 45 0c             	mov    0xc(%ebp),%eax
  101bc8:	25 ff 0f 00 00       	and    $0xfff,%eax
  101bcd:	85 c0                	test   %eax,%eax
  101bcf:	74 1c                	je     101bed <create_heap+0x72>
  101bd1:	c7 44 24 08 43 41 10 	movl   $0x104143,0x8(%esp)
  101bd8:	00 
  101bd9:	c7 44 24 04 a8 00 00 	movl   $0xa8,0x4(%esp)
  101be0:	00 
  101be1:	c7 04 24 c3 40 10 00 	movl   $0x1040c3,(%esp)
  101be8:	e8 7b eb ff ff       	call   100768 <panic_assert>
  101bed:	8b 45 08             	mov    0x8(%ebp),%eax
  101bf0:	8b 5d f0             	mov    -0x10(%ebp),%ebx
  101bf3:	8d 55 c8             	lea    -0x38(%ebp),%edx
  101bf6:	c7 44 24 0c 62 1b 10 	movl   $0x101b62,0xc(%esp)
  101bfd:	00 
  101bfe:	c7 44 24 08 00 00 02 	movl   $0x20000,0x8(%esp)
  101c05:	00 
  101c06:	89 44 24 04          	mov    %eax,0x4(%esp)
  101c0a:	89 14 24             	mov    %edx,(%esp)
  101c0d:	e8 5f 0f 00 00       	call   102b71 <place_ordered_array>
  101c12:	83 ec 04             	sub    $0x4,%esp
  101c15:	8b 45 c8             	mov    -0x38(%ebp),%eax
  101c18:	89 03                	mov    %eax,(%ebx)
  101c1a:	8b 45 cc             	mov    -0x34(%ebp),%eax
  101c1d:	89 43 04             	mov    %eax,0x4(%ebx)
  101c20:	8b 45 d0             	mov    -0x30(%ebp),%eax
  101c23:	89 43 08             	mov    %eax,0x8(%ebx)
  101c26:	8b 45 d4             	mov    -0x2c(%ebp),%eax
  101c29:	89 43 0c             	mov    %eax,0xc(%ebx)
  101c2c:	81 45 08 00 00 08 00 	addl   $0x80000,0x8(%ebp)
  101c33:	8b 45 08             	mov    0x8(%ebp),%eax
  101c36:	83 e0 01             	and    $0x1,%eax
  101c39:	84 c0                	test   %al,%al
  101c3b:	74 0e                	je     101c4b <create_heap+0xd0>
  101c3d:	81 65 08 00 f0 ff ff 	andl   $0xfffff000,0x8(%ebp)
  101c44:	81 45 08 00 10 00 00 	addl   $0x1000,0x8(%ebp)
  101c4b:	8b 55 f0             	mov    -0x10(%ebp),%edx
  101c4e:	8b 45 08             	mov    0x8(%ebp),%eax
  101c51:	89 42 10             	mov    %eax,0x10(%edx)
  101c54:	8b 55 f0             	mov    -0x10(%ebp),%edx
  101c57:	8b 45 0c             	mov    0xc(%ebp),%eax
  101c5a:	89 42 14             	mov    %eax,0x14(%edx)
  101c5d:	8b 55 f0             	mov    -0x10(%ebp),%edx
  101c60:	8b 45 10             	mov    0x10(%ebp),%eax
  101c63:	89 42 18             	mov    %eax,0x18(%edx)
  101c66:	8b 55 f0             	mov    -0x10(%ebp),%edx
  101c69:	0f b6 45 e4          	movzbl -0x1c(%ebp),%eax
  101c6d:	88 42 1c             	mov    %al,0x1c(%edx)
  101c70:	8b 55 f0             	mov    -0x10(%ebp),%edx
  101c73:	0f b6 45 e0          	movzbl -0x20(%ebp),%eax
  101c77:	88 42 1d             	mov    %al,0x1d(%edx)
  101c7a:	8b 45 08             	mov    0x8(%ebp),%eax
  101c7d:	89 45 f4             	mov    %eax,-0xc(%ebp)
  101c80:	8b 55 08             	mov    0x8(%ebp),%edx
  101c83:	8b 45 0c             	mov    0xc(%ebp),%eax
  101c86:	89 c1                	mov    %eax,%ecx
  101c88:	29 d1                	sub    %edx,%ecx
  101c8a:	89 ca                	mov    %ecx,%edx
  101c8c:	8b 45 f4             	mov    -0xc(%ebp),%eax
  101c8f:	89 50 08             	mov    %edx,0x8(%eax)
  101c92:	8b 45 f4             	mov    -0xc(%ebp),%eax
  101c95:	c7 00 ab 90 38 12    	movl   $0x123890ab,(%eax)
  101c9b:	8b 45 f4             	mov    -0xc(%ebp),%eax
  101c9e:	c6 40 04 01          	movb   $0x1,0x4(%eax)
  101ca2:	8b 45 f0             	mov    -0x10(%ebp),%eax
  101ca5:	89 44 24 04          	mov    %eax,0x4(%esp)
  101ca9:	8b 45 f4             	mov    -0xc(%ebp),%eax
  101cac:	89 04 24             	mov    %eax,(%esp)
  101caf:	e8 23 0f 00 00       	call   102bd7 <insert_ordered_array>
  101cb4:	8b 45 f0             	mov    -0x10(%ebp),%eax
  101cb7:	8b 5d fc             	mov    -0x4(%ebp),%ebx
  101cba:	c9                   	leave  
  101cbb:	c3                   	ret    

00101cbc <alloc>:
  101cbc:	55                   	push   %ebp
  101cbd:	89 e5                	mov    %esp,%ebp
  101cbf:	83 ec 78             	sub    $0x78,%esp
  101cc2:	8b 45 0c             	mov    0xc(%ebp),%eax
  101cc5:	88 45 9c             	mov    %al,-0x64(%ebp)
  101cc8:	8b 45 08             	mov    0x8(%ebp),%eax
  101ccb:	83 c0 14             	add    $0x14,%eax
  101cce:	89 45 a8             	mov    %eax,-0x58(%ebp)
  101cd1:	0f b6 55 9c          	movzbl -0x64(%ebp),%edx
  101cd5:	8b 45 10             	mov    0x10(%ebp),%eax
  101cd8:	89 44 24 08          	mov    %eax,0x8(%esp)
  101cdc:	89 54 24 04          	mov    %edx,0x4(%esp)
  101ce0:	8b 45 a8             	mov    -0x58(%ebp),%eax
  101ce3:	89 04 24             	mov    %eax,(%esp)
  101ce6:	e8 c7 fd ff ff       	call   101ab2 <find_smallest_hole>
  101ceb:	89 45 ac             	mov    %eax,-0x54(%ebp)
  101cee:	83 7d ac ff          	cmpl   $0xffffffff,-0x54(%ebp)
  101cf2:	0f 85 6f 01 00 00    	jne    101e67 <alloc+0x1ab>
  101cf8:	8b 45 10             	mov    0x10(%ebp),%eax
  101cfb:	8b 50 14             	mov    0x14(%eax),%edx
  101cfe:	8b 45 10             	mov    0x10(%ebp),%eax
  101d01:	8b 40 10             	mov    0x10(%eax),%eax
  101d04:	89 d1                	mov    %edx,%ecx
  101d06:	29 c1                	sub    %eax,%ecx
  101d08:	89 c8                	mov    %ecx,%eax
  101d0a:	89 45 c4             	mov    %eax,-0x3c(%ebp)
  101d0d:	8b 45 10             	mov    0x10(%ebp),%eax
  101d10:	8b 40 14             	mov    0x14(%eax),%eax
  101d13:	89 45 c8             	mov    %eax,-0x38(%ebp)
  101d16:	8b 45 a8             	mov    -0x58(%ebp),%eax
  101d19:	8b 55 c4             	mov    -0x3c(%ebp),%edx
  101d1c:	01 c2                	add    %eax,%edx
  101d1e:	8b 45 10             	mov    0x10(%ebp),%eax
  101d21:	89 44 24 04          	mov    %eax,0x4(%esp)
  101d25:	89 14 24             	mov    %edx,(%esp)
  101d28:	e8 97 fb ff ff       	call   1018c4 <expand>
  101d2d:	8b 45 10             	mov    0x10(%ebp),%eax
  101d30:	8b 50 14             	mov    0x14(%eax),%edx
  101d33:	8b 45 10             	mov    0x10(%ebp),%eax
  101d36:	8b 40 10             	mov    0x10(%eax),%eax
  101d39:	89 d1                	mov    %edx,%ecx
  101d3b:	29 c1                	sub    %eax,%ecx
  101d3d:	89 c8                	mov    %ecx,%eax
  101d3f:	89 45 cc             	mov    %eax,-0x34(%ebp)
  101d42:	c7 45 ac 00 00 00 00 	movl   $0x0,-0x54(%ebp)
  101d49:	c7 45 d0 ff ff ff ff 	movl   $0xffffffff,-0x30(%ebp)
  101d50:	c7 45 d4 00 00 00 00 	movl   $0x0,-0x2c(%ebp)
  101d57:	eb 2c                	jmp    101d85 <alloc+0xc9>
  101d59:	8b 45 10             	mov    0x10(%ebp),%eax
  101d5c:	8b 55 ac             	mov    -0x54(%ebp),%edx
  101d5f:	89 44 24 04          	mov    %eax,0x4(%esp)
  101d63:	89 14 24             	mov    %edx,(%esp)
  101d66:	e8 75 0f 00 00       	call   102ce0 <lookup_ordered_array>
  101d6b:	89 45 d8             	mov    %eax,-0x28(%ebp)
  101d6e:	8b 45 d8             	mov    -0x28(%ebp),%eax
  101d71:	3b 45 d4             	cmp    -0x2c(%ebp),%eax
  101d74:	76 0c                	jbe    101d82 <alloc+0xc6>
  101d76:	8b 45 d8             	mov    -0x28(%ebp),%eax
  101d79:	89 45 d4             	mov    %eax,-0x2c(%ebp)
  101d7c:	8b 45 ac             	mov    -0x54(%ebp),%eax
  101d7f:	89 45 d0             	mov    %eax,-0x30(%ebp)
  101d82:	ff 45 ac             	incl   -0x54(%ebp)
  101d85:	8b 45 ac             	mov    -0x54(%ebp),%eax
  101d88:	8b 55 10             	mov    0x10(%ebp),%edx
  101d8b:	8b 52 04             	mov    0x4(%edx),%edx
  101d8e:	39 d0                	cmp    %edx,%eax
  101d90:	72 c7                	jb     101d59 <alloc+0x9d>
  101d92:	83 7d d0 ff          	cmpl   $0xffffffff,-0x30(%ebp)
  101d96:	75 5d                	jne    101df5 <alloc+0x139>
  101d98:	8b 45 c8             	mov    -0x38(%ebp),%eax
  101d9b:	89 45 dc             	mov    %eax,-0x24(%ebp)
  101d9e:	8b 45 dc             	mov    -0x24(%ebp),%eax
  101da1:	c7 00 ab 90 38 12    	movl   $0x123890ab,(%eax)
  101da7:	8b 55 c4             	mov    -0x3c(%ebp),%edx
  101daa:	8b 45 cc             	mov    -0x34(%ebp),%eax
  101dad:	89 c1                	mov    %eax,%ecx
  101daf:	29 d1                	sub    %edx,%ecx
  101db1:	89 ca                	mov    %ecx,%edx
  101db3:	8b 45 dc             	mov    -0x24(%ebp),%eax
  101db6:	89 50 08             	mov    %edx,0x8(%eax)
  101db9:	8b 45 dc             	mov    -0x24(%ebp),%eax
  101dbc:	c6 40 04 01          	movb   $0x1,0x4(%eax)
  101dc0:	8b 45 dc             	mov    -0x24(%ebp),%eax
  101dc3:	8b 40 08             	mov    0x8(%eax),%eax
  101dc6:	03 45 c8             	add    -0x38(%ebp),%eax
  101dc9:	83 e8 08             	sub    $0x8,%eax
  101dcc:	89 45 e0             	mov    %eax,-0x20(%ebp)
  101dcf:	8b 45 e0             	mov    -0x20(%ebp),%eax
  101dd2:	c7 00 ab 90 38 12    	movl   $0x123890ab,(%eax)
  101dd8:	8b 55 e0             	mov    -0x20(%ebp),%edx
  101ddb:	8b 45 dc             	mov    -0x24(%ebp),%eax
  101dde:	89 42 04             	mov    %eax,0x4(%edx)
  101de1:	8b 45 10             	mov    0x10(%ebp),%eax
  101de4:	89 44 24 04          	mov    %eax,0x4(%esp)
  101de8:	8b 45 dc             	mov    -0x24(%ebp),%eax
  101deb:	89 04 24             	mov    %eax,(%esp)
  101dee:	e8 e4 0d 00 00       	call   102bd7 <insert_ordered_array>
  101df3:	eb 50                	jmp    101e45 <alloc+0x189>
  101df5:	8b 45 10             	mov    0x10(%ebp),%eax
  101df8:	89 44 24 04          	mov    %eax,0x4(%esp)
  101dfc:	8b 45 d0             	mov    -0x30(%ebp),%eax
  101dff:	89 04 24             	mov    %eax,(%esp)
  101e02:	e8 d9 0e 00 00       	call   102ce0 <lookup_ordered_array>
  101e07:	89 45 e4             	mov    %eax,-0x1c(%ebp)
  101e0a:	8b 45 e4             	mov    -0x1c(%ebp),%eax
  101e0d:	8b 48 08             	mov    0x8(%eax),%ecx
  101e10:	8b 55 c4             	mov    -0x3c(%ebp),%edx
  101e13:	8b 45 cc             	mov    -0x34(%ebp),%eax
  101e16:	29 d0                	sub    %edx,%eax
  101e18:	8d 14 01             	lea    (%ecx,%eax,1),%edx
  101e1b:	8b 45 e4             	mov    -0x1c(%ebp),%eax
  101e1e:	89 50 08             	mov    %edx,0x8(%eax)
  101e21:	8b 45 e4             	mov    -0x1c(%ebp),%eax
  101e24:	8b 50 08             	mov    0x8(%eax),%edx
  101e27:	8b 45 e4             	mov    -0x1c(%ebp),%eax
  101e2a:	8d 04 02             	lea    (%edx,%eax,1),%eax
  101e2d:	83 e8 08             	sub    $0x8,%eax
  101e30:	89 45 e8             	mov    %eax,-0x18(%ebp)
  101e33:	8b 55 e8             	mov    -0x18(%ebp),%edx
  101e36:	8b 45 e4             	mov    -0x1c(%ebp),%eax
  101e39:	89 42 04             	mov    %eax,0x4(%edx)
  101e3c:	8b 45 e8             	mov    -0x18(%ebp),%eax
  101e3f:	c7 00 ab 90 38 12    	movl   $0x123890ab,(%eax)
  101e45:	0f b6 55 9c          	movzbl -0x64(%ebp),%edx
  101e49:	8b 45 10             	mov    0x10(%ebp),%eax
  101e4c:	89 44 24 08          	mov    %eax,0x8(%esp)
  101e50:	89 54 24 04          	mov    %edx,0x4(%esp)
  101e54:	8b 45 08             	mov    0x8(%ebp),%eax
  101e57:	89 04 24             	mov    %eax,(%esp)
  101e5a:	e8 5d fe ff ff       	call   101cbc <alloc>
  101e5f:	89 45 98             	mov    %eax,-0x68(%ebp)
  101e62:	e9 90 01 00 00       	jmp    101ff7 <alloc+0x33b>
  101e67:	8b 45 10             	mov    0x10(%ebp),%eax
  101e6a:	8b 55 ac             	mov    -0x54(%ebp),%edx
  101e6d:	89 44 24 04          	mov    %eax,0x4(%esp)
  101e71:	89 14 24             	mov    %edx,(%esp)
  101e74:	e8 67 0e 00 00       	call   102ce0 <lookup_ordered_array>
  101e79:	89 45 b0             	mov    %eax,-0x50(%ebp)
  101e7c:	8b 45 b0             	mov    -0x50(%ebp),%eax
  101e7f:	89 45 b4             	mov    %eax,-0x4c(%ebp)
  101e82:	8b 45 b0             	mov    -0x50(%ebp),%eax
  101e85:	8b 40 08             	mov    0x8(%eax),%eax
  101e88:	89 45 b8             	mov    %eax,-0x48(%ebp)
  101e8b:	8b 55 a8             	mov    -0x58(%ebp),%edx
  101e8e:	8b 45 b8             	mov    -0x48(%ebp),%eax
  101e91:	29 d0                	sub    %edx,%eax
  101e93:	83 f8 13             	cmp    $0x13,%eax
  101e96:	77 11                	ja     101ea9 <alloc+0x1ed>
  101e98:	8b 55 a8             	mov    -0x58(%ebp),%edx
  101e9b:	8b 45 b8             	mov    -0x48(%ebp),%eax
  101e9e:	29 d0                	sub    %edx,%eax
  101ea0:	01 45 08             	add    %eax,0x8(%ebp)
  101ea3:	8b 45 b8             	mov    -0x48(%ebp),%eax
  101ea6:	89 45 a8             	mov    %eax,-0x58(%ebp)
  101ea9:	80 7d 9c 00          	cmpb   $0x0,-0x64(%ebp)
  101ead:	74 78                	je     101f27 <alloc+0x26b>
  101eaf:	8b 45 b4             	mov    -0x4c(%ebp),%eax
  101eb2:	25 00 f0 ff ff       	and    $0xfffff000,%eax
  101eb7:	85 c0                	test   %eax,%eax
  101eb9:	74 6c                	je     101f27 <alloc+0x26b>
  101ebb:	8b 45 b4             	mov    -0x4c(%ebp),%eax
  101ebe:	25 00 f0 ff ff       	and    $0xfffff000,%eax
  101ec3:	05 f4 0f 00 00       	add    $0xff4,%eax
  101ec8:	89 45 ec             	mov    %eax,-0x14(%ebp)
  101ecb:	8b 45 b4             	mov    -0x4c(%ebp),%eax
  101ece:	89 45 f0             	mov    %eax,-0x10(%ebp)
  101ed1:	8b 55 b4             	mov    -0x4c(%ebp),%edx
  101ed4:	81 e2 ff 0f 00 00    	and    $0xfff,%edx
  101eda:	b8 f4 0f 00 00       	mov    $0xff4,%eax
  101edf:	89 c1                	mov    %eax,%ecx
  101ee1:	29 d1                	sub    %edx,%ecx
  101ee3:	89 ca                	mov    %ecx,%edx
  101ee5:	8b 45 f0             	mov    -0x10(%ebp),%eax
  101ee8:	89 50 08             	mov    %edx,0x8(%eax)
  101eeb:	8b 45 f0             	mov    -0x10(%ebp),%eax
  101eee:	c7 00 ab 90 38 12    	movl   $0x123890ab,(%eax)
  101ef4:	8b 45 f0             	mov    -0x10(%ebp),%eax
  101ef7:	c6 40 04 01          	movb   $0x1,0x4(%eax)
  101efb:	8b 45 ec             	mov    -0x14(%ebp),%eax
  101efe:	83 e8 08             	sub    $0x8,%eax
  101f01:	89 45 f4             	mov    %eax,-0xc(%ebp)
  101f04:	8b 45 f4             	mov    -0xc(%ebp),%eax
  101f07:	c7 00 ab 90 38 12    	movl   $0x123890ab,(%eax)
  101f0d:	8b 55 f4             	mov    -0xc(%ebp),%edx
  101f10:	8b 45 f0             	mov    -0x10(%ebp),%eax
  101f13:	89 42 04             	mov    %eax,0x4(%edx)
  101f16:	8b 45 ec             	mov    -0x14(%ebp),%eax
  101f19:	89 45 b4             	mov    %eax,-0x4c(%ebp)
  101f1c:	8b 45 f0             	mov    -0x10(%ebp),%eax
  101f1f:	8b 40 08             	mov    0x8(%eax),%eax
  101f22:	29 45 b8             	sub    %eax,-0x48(%ebp)
  101f25:	eb 12                	jmp    101f39 <alloc+0x27d>
  101f27:	8b 45 10             	mov    0x10(%ebp),%eax
  101f2a:	8b 55 ac             	mov    -0x54(%ebp),%edx
  101f2d:	89 44 24 04          	mov    %eax,0x4(%esp)
  101f31:	89 14 24             	mov    %edx,(%esp)
  101f34:	e8 e6 0d 00 00       	call   102d1f <remove_ordered_array>
  101f39:	8b 45 b4             	mov    -0x4c(%ebp),%eax
  101f3c:	89 45 bc             	mov    %eax,-0x44(%ebp)
  101f3f:	8b 45 bc             	mov    -0x44(%ebp),%eax
  101f42:	c7 00 ab 90 38 12    	movl   $0x123890ab,(%eax)
  101f48:	8b 45 bc             	mov    -0x44(%ebp),%eax
  101f4b:	c6 40 04 00          	movb   $0x0,0x4(%eax)
  101f4f:	8b 55 bc             	mov    -0x44(%ebp),%edx
  101f52:	8b 45 a8             	mov    -0x58(%ebp),%eax
  101f55:	89 42 08             	mov    %eax,0x8(%edx)
  101f58:	8b 45 08             	mov    0x8(%ebp),%eax
  101f5b:	03 45 b4             	add    -0x4c(%ebp),%eax
  101f5e:	83 c0 0c             	add    $0xc,%eax
  101f61:	89 45 c0             	mov    %eax,-0x40(%ebp)
  101f64:	8b 45 c0             	mov    -0x40(%ebp),%eax
  101f67:	c7 00 ab 90 38 12    	movl   $0x123890ab,(%eax)
  101f6d:	8b 55 c0             	mov    -0x40(%ebp),%edx
  101f70:	8b 45 bc             	mov    -0x44(%ebp),%eax
  101f73:	89 42 04             	mov    %eax,0x4(%edx)
  101f76:	8b 45 b8             	mov    -0x48(%ebp),%eax
  101f79:	3b 45 a8             	cmp    -0x58(%ebp),%eax
  101f7c:	74 70                	je     101fee <alloc+0x332>
  101f7e:	8b 45 08             	mov    0x8(%ebp),%eax
  101f81:	03 45 b4             	add    -0x4c(%ebp),%eax
  101f84:	83 c0 14             	add    $0x14,%eax
  101f87:	89 45 f8             	mov    %eax,-0x8(%ebp)
  101f8a:	8b 45 f8             	mov    -0x8(%ebp),%eax
  101f8d:	c7 00 ab 90 38 12    	movl   $0x123890ab,(%eax)
  101f93:	8b 45 f8             	mov    -0x8(%ebp),%eax
  101f96:	c6 40 04 01          	movb   $0x1,0x4(%eax)
  101f9a:	8b 55 a8             	mov    -0x58(%ebp),%edx
  101f9d:	8b 45 b8             	mov    -0x48(%ebp),%eax
  101fa0:	89 c1                	mov    %eax,%ecx
  101fa2:	29 d1                	sub    %edx,%ecx
  101fa4:	89 ca                	mov    %ecx,%edx
  101fa6:	8b 45 f8             	mov    -0x8(%ebp),%eax
  101fa9:	89 50 08             	mov    %edx,0x8(%eax)
  101fac:	8b 45 f8             	mov    -0x8(%ebp),%eax
  101faf:	03 45 b8             	add    -0x48(%ebp),%eax
  101fb2:	2b 45 a8             	sub    -0x58(%ebp),%eax
  101fb5:	83 e8 08             	sub    $0x8,%eax
  101fb8:	89 45 fc             	mov    %eax,-0x4(%ebp)
  101fbb:	8b 45 fc             	mov    -0x4(%ebp),%eax
  101fbe:	89 c2                	mov    %eax,%edx
  101fc0:	8b 45 10             	mov    0x10(%ebp),%eax
  101fc3:	8b 40 14             	mov    0x14(%eax),%eax
  101fc6:	39 c2                	cmp    %eax,%edx
  101fc8:	73 12                	jae    101fdc <alloc+0x320>
  101fca:	8b 45 fc             	mov    -0x4(%ebp),%eax
  101fcd:	c7 00 ab 90 38 12    	movl   $0x123890ab,(%eax)
  101fd3:	8b 55 fc             	mov    -0x4(%ebp),%edx
  101fd6:	8b 45 f8             	mov    -0x8(%ebp),%eax
  101fd9:	89 42 04             	mov    %eax,0x4(%edx)
  101fdc:	8b 45 10             	mov    0x10(%ebp),%eax
  101fdf:	89 44 24 04          	mov    %eax,0x4(%esp)
  101fe3:	8b 45 f8             	mov    -0x8(%ebp),%eax
  101fe6:	89 04 24             	mov    %eax,(%esp)
  101fe9:	e8 e9 0b 00 00       	call   102bd7 <insert_ordered_array>
  101fee:	8b 45 bc             	mov    -0x44(%ebp),%eax
  101ff1:	83 c0 0c             	add    $0xc,%eax
  101ff4:	89 45 98             	mov    %eax,-0x68(%ebp)
  101ff7:	8b 45 98             	mov    -0x68(%ebp),%eax
  101ffa:	c9                   	leave  
  101ffb:	c3                   	ret    

00101ffc <free>:
  101ffc:	55                   	push   %ebp
  101ffd:	89 e5                	mov    %esp,%ebp
  101fff:	83 ec 48             	sub    $0x48,%esp
  102002:	83 7d 08 00          	cmpl   $0x0,0x8(%ebp)
  102006:	0f 84 7f 02 00 00    	je     10228b <free+0x28f>
  10200c:	8b 45 08             	mov    0x8(%ebp),%eax
  10200f:	83 e8 0c             	sub    $0xc,%eax
  102012:	89 45 d8             	mov    %eax,-0x28(%ebp)
  102015:	8b 45 d8             	mov    -0x28(%ebp),%eax
  102018:	8b 50 08             	mov    0x8(%eax),%edx
  10201b:	8b 45 d8             	mov    -0x28(%ebp),%eax
  10201e:	8d 04 02             	lea    (%edx,%eax,1),%eax
  102021:	83 e8 08             	sub    $0x8,%eax
  102024:	89 45 dc             	mov    %eax,-0x24(%ebp)
  102027:	8b 45 d8             	mov    -0x28(%ebp),%eax
  10202a:	8b 00                	mov    (%eax),%eax
  10202c:	3d ab 90 38 12       	cmp    $0x123890ab,%eax
  102031:	74 1c                	je     10204f <free+0x53>
  102033:	c7 44 24 08 58 41 10 	movl   $0x104158,0x8(%esp)
  10203a:	00 
  10203b:	c7 44 24 04 4d 01 00 	movl   $0x14d,0x4(%esp)
  102042:	00 
  102043:	c7 04 24 c3 40 10 00 	movl   $0x1040c3,(%esp)
  10204a:	e8 19 e7 ff ff       	call   100768 <panic_assert>
  10204f:	8b 45 dc             	mov    -0x24(%ebp),%eax
  102052:	8b 00                	mov    (%eax),%eax
  102054:	3d ab 90 38 12       	cmp    $0x123890ab,%eax
  102059:	74 1c                	je     102077 <free+0x7b>
  10205b:	c7 44 24 08 74 41 10 	movl   $0x104174,0x8(%esp)
  102062:	00 
  102063:	c7 44 24 04 4e 01 00 	movl   $0x14e,0x4(%esp)
  10206a:	00 
  10206b:	c7 04 24 c3 40 10 00 	movl   $0x1040c3,(%esp)
  102072:	e8 f1 e6 ff ff       	call   100768 <panic_assert>
  102077:	8b 45 d8             	mov    -0x28(%ebp),%eax
  10207a:	c6 40 04 01          	movb   $0x1,0x4(%eax)
  10207e:	c6 45 e3 01          	movb   $0x1,-0x1d(%ebp)
  102082:	8b 45 d8             	mov    -0x28(%ebp),%eax
  102085:	83 e8 08             	sub    $0x8,%eax
  102088:	89 45 e4             	mov    %eax,-0x1c(%ebp)
  10208b:	8b 45 e4             	mov    -0x1c(%ebp),%eax
  10208e:	8b 00                	mov    (%eax),%eax
  102090:	3d ab 90 38 12       	cmp    $0x123890ab,%eax
  102095:	75 3e                	jne    1020d5 <free+0xd9>
  102097:	8b 45 e4             	mov    -0x1c(%ebp),%eax
  10209a:	8b 40 04             	mov    0x4(%eax),%eax
  10209d:	0f b6 40 04          	movzbl 0x4(%eax),%eax
  1020a1:	3c 01                	cmp    $0x1,%al
  1020a3:	75 30                	jne    1020d5 <free+0xd9>
  1020a5:	8b 45 d8             	mov    -0x28(%ebp),%eax
  1020a8:	8b 40 08             	mov    0x8(%eax),%eax
  1020ab:	89 45 ec             	mov    %eax,-0x14(%ebp)
  1020ae:	8b 45 e4             	mov    -0x1c(%ebp),%eax
  1020b1:	8b 40 04             	mov    0x4(%eax),%eax
  1020b4:	89 45 d8             	mov    %eax,-0x28(%ebp)
  1020b7:	8b 55 dc             	mov    -0x24(%ebp),%edx
  1020ba:	8b 45 d8             	mov    -0x28(%ebp),%eax
  1020bd:	89 42 04             	mov    %eax,0x4(%edx)
  1020c0:	8b 45 d8             	mov    -0x28(%ebp),%eax
  1020c3:	8b 40 08             	mov    0x8(%eax),%eax
  1020c6:	89 c2                	mov    %eax,%edx
  1020c8:	03 55 ec             	add    -0x14(%ebp),%edx
  1020cb:	8b 45 d8             	mov    -0x28(%ebp),%eax
  1020ce:	89 50 08             	mov    %edx,0x8(%eax)
  1020d1:	c6 45 e3 00          	movb   $0x0,-0x1d(%ebp)
  1020d5:	8b 45 dc             	mov    -0x24(%ebp),%eax
  1020d8:	83 c0 08             	add    $0x8,%eax
  1020db:	89 45 e8             	mov    %eax,-0x18(%ebp)
  1020de:	8b 45 e8             	mov    -0x18(%ebp),%eax
  1020e1:	8b 00                	mov    (%eax),%eax
  1020e3:	3d ab 90 38 12       	cmp    $0x123890ab,%eax
  1020e8:	0f 85 a2 00 00 00    	jne    102190 <free+0x194>
  1020ee:	8b 45 e8             	mov    -0x18(%ebp),%eax
  1020f1:	0f b6 40 04          	movzbl 0x4(%eax),%eax
  1020f5:	84 c0                	test   %al,%al
  1020f7:	0f 84 93 00 00 00    	je     102190 <free+0x194>
  1020fd:	8b 45 d8             	mov    -0x28(%ebp),%eax
  102100:	8b 50 08             	mov    0x8(%eax),%edx
  102103:	8b 45 e8             	mov    -0x18(%ebp),%eax
  102106:	8b 40 08             	mov    0x8(%eax),%eax
  102109:	01 c2                	add    %eax,%edx
  10210b:	8b 45 d8             	mov    -0x28(%ebp),%eax
  10210e:	89 50 08             	mov    %edx,0x8(%eax)
  102111:	8b 45 e8             	mov    -0x18(%ebp),%eax
  102114:	8b 50 08             	mov    0x8(%eax),%edx
  102117:	8b 45 e8             	mov    -0x18(%ebp),%eax
  10211a:	8d 04 02             	lea    (%edx,%eax,1),%eax
  10211d:	83 e8 08             	sub    $0x8,%eax
  102120:	89 45 e4             	mov    %eax,-0x1c(%ebp)
  102123:	8b 45 e4             	mov    -0x1c(%ebp),%eax
  102126:	89 45 dc             	mov    %eax,-0x24(%ebp)
  102129:	c7 45 f0 00 00 00 00 	movl   $0x0,-0x10(%ebp)
  102130:	eb 03                	jmp    102135 <free+0x139>
  102132:	ff 45 f0             	incl   -0x10(%ebp)
  102135:	8b 45 0c             	mov    0xc(%ebp),%eax
  102138:	8b 40 04             	mov    0x4(%eax),%eax
  10213b:	3b 45 f0             	cmp    -0x10(%ebp),%eax
  10213e:	76 17                	jbe    102157 <free+0x15b>
  102140:	8b 45 0c             	mov    0xc(%ebp),%eax
  102143:	89 44 24 04          	mov    %eax,0x4(%esp)
  102147:	8b 45 f0             	mov    -0x10(%ebp),%eax
  10214a:	89 04 24             	mov    %eax,(%esp)
  10214d:	e8 8e 0b 00 00       	call   102ce0 <lookup_ordered_array>
  102152:	3b 45 e8             	cmp    -0x18(%ebp),%eax
  102155:	75 db                	jne    102132 <free+0x136>
  102157:	8b 45 0c             	mov    0xc(%ebp),%eax
  10215a:	8b 40 04             	mov    0x4(%eax),%eax
  10215d:	3b 45 f0             	cmp    -0x10(%ebp),%eax
  102160:	77 1c                	ja     10217e <free+0x182>
  102162:	c7 44 24 08 90 41 10 	movl   $0x104190,0x8(%esp)
  102169:	00 
  10216a:	c7 44 24 04 74 01 00 	movl   $0x174,0x4(%esp)
  102171:	00 
  102172:	c7 04 24 c3 40 10 00 	movl   $0x1040c3,(%esp)
  102179:	e8 ea e5 ff ff       	call   100768 <panic_assert>
  10217e:	8b 45 0c             	mov    0xc(%ebp),%eax
  102181:	89 44 24 04          	mov    %eax,0x4(%esp)
  102185:	8b 45 f0             	mov    -0x10(%ebp),%eax
  102188:	89 04 24             	mov    %eax,(%esp)
  10218b:	e8 8f 0b 00 00       	call   102d1f <remove_ordered_array>
  102190:	8b 45 dc             	mov    -0x24(%ebp),%eax
  102193:	8d 50 08             	lea    0x8(%eax),%edx
  102196:	8b 45 0c             	mov    0xc(%ebp),%eax
  102199:	8b 40 14             	mov    0x14(%eax),%eax
  10219c:	39 c2                	cmp    %eax,%edx
  10219e:	0f 85 cf 00 00 00    	jne    102273 <free+0x277>
  1021a4:	8b 45 0c             	mov    0xc(%ebp),%eax
  1021a7:	8b 50 14             	mov    0x14(%eax),%edx
  1021aa:	8b 45 0c             	mov    0xc(%ebp),%eax
  1021ad:	8b 40 10             	mov    0x10(%eax),%eax
  1021b0:	89 d1                	mov    %edx,%ecx
  1021b2:	29 c1                	sub    %eax,%ecx
  1021b4:	89 c8                	mov    %ecx,%eax
  1021b6:	89 45 f4             	mov    %eax,-0xc(%ebp)
  1021b9:	8b 45 d8             	mov    -0x28(%ebp),%eax
  1021bc:	89 c2                	mov    %eax,%edx
  1021be:	8b 45 0c             	mov    0xc(%ebp),%eax
  1021c1:	8b 40 10             	mov    0x10(%eax),%eax
  1021c4:	29 c2                	sub    %eax,%edx
  1021c6:	8b 45 0c             	mov    0xc(%ebp),%eax
  1021c9:	89 44 24 04          	mov    %eax,0x4(%esp)
  1021cd:	89 14 24             	mov    %edx,(%esp)
  1021d0:	e8 08 f8 ff ff       	call   1019dd <contract>
  1021d5:	89 45 f8             	mov    %eax,-0x8(%ebp)
  1021d8:	8b 45 d8             	mov    -0x28(%ebp),%eax
  1021db:	8b 48 08             	mov    0x8(%eax),%ecx
  1021de:	8b 55 f8             	mov    -0x8(%ebp),%edx
  1021e1:	8b 45 f4             	mov    -0xc(%ebp),%eax
  1021e4:	29 d0                	sub    %edx,%eax
  1021e6:	39 c1                	cmp    %eax,%ecx
  1021e8:	74 3e                	je     102228 <free+0x22c>
  1021ea:	8b 45 d8             	mov    -0x28(%ebp),%eax
  1021ed:	8b 48 08             	mov    0x8(%eax),%ecx
  1021f0:	8b 55 f8             	mov    -0x8(%ebp),%edx
  1021f3:	8b 45 f4             	mov    -0xc(%ebp),%eax
  1021f6:	29 d0                	sub    %edx,%eax
  1021f8:	89 ca                	mov    %ecx,%edx
  1021fa:	29 c2                	sub    %eax,%edx
  1021fc:	8b 45 d8             	mov    -0x28(%ebp),%eax
  1021ff:	89 50 08             	mov    %edx,0x8(%eax)
  102202:	8b 45 d8             	mov    -0x28(%ebp),%eax
  102205:	8b 50 08             	mov    0x8(%eax),%edx
  102208:	8b 45 d8             	mov    -0x28(%ebp),%eax
  10220b:	8d 04 02             	lea    (%edx,%eax,1),%eax
  10220e:	83 e8 08             	sub    $0x8,%eax
  102211:	89 45 dc             	mov    %eax,-0x24(%ebp)
  102214:	8b 45 dc             	mov    -0x24(%ebp),%eax
  102217:	c7 00 ab 90 38 12    	movl   $0x123890ab,(%eax)
  10221d:	8b 55 dc             	mov    -0x24(%ebp),%edx
  102220:	8b 45 d8             	mov    -0x28(%ebp),%eax
  102223:	89 42 04             	mov    %eax,0x4(%edx)
  102226:	eb 4b                	jmp    102273 <free+0x277>
  102228:	c7 45 fc 00 00 00 00 	movl   $0x0,-0x4(%ebp)
  10222f:	eb 03                	jmp    102234 <free+0x238>
  102231:	ff 45 fc             	incl   -0x4(%ebp)
  102234:	8b 45 0c             	mov    0xc(%ebp),%eax
  102237:	8b 40 04             	mov    0x4(%eax),%eax
  10223a:	3b 45 fc             	cmp    -0x4(%ebp),%eax
  10223d:	76 17                	jbe    102256 <free+0x25a>
  10223f:	8b 45 0c             	mov    0xc(%ebp),%eax
  102242:	89 44 24 04          	mov    %eax,0x4(%esp)
  102246:	8b 45 fc             	mov    -0x4(%ebp),%eax
  102249:	89 04 24             	mov    %eax,(%esp)
  10224c:	e8 8f 0a 00 00       	call   102ce0 <lookup_ordered_array>
  102251:	3b 45 e8             	cmp    -0x18(%ebp),%eax
  102254:	75 db                	jne    102231 <free+0x235>
  102256:	8b 45 0c             	mov    0xc(%ebp),%eax
  102259:	8b 40 04             	mov    0x4(%eax),%eax
  10225c:	3b 45 fc             	cmp    -0x4(%ebp),%eax
  10225f:	76 12                	jbe    102273 <free+0x277>
  102261:	8b 45 0c             	mov    0xc(%ebp),%eax
  102264:	89 44 24 04          	mov    %eax,0x4(%esp)
  102268:	8b 45 fc             	mov    -0x4(%ebp),%eax
  10226b:	89 04 24             	mov    %eax,(%esp)
  10226e:	e8 ac 0a 00 00       	call   102d1f <remove_ordered_array>
  102273:	80 7d e3 01          	cmpb   $0x1,-0x1d(%ebp)
  102277:	75 12                	jne    10228b <free+0x28f>
  102279:	8b 45 0c             	mov    0xc(%ebp),%eax
  10227c:	89 44 24 04          	mov    %eax,0x4(%esp)
  102280:	8b 45 d8             	mov    -0x28(%ebp),%eax
  102283:	89 04 24             	mov    %eax,(%esp)
  102286:	e8 4c 09 00 00       	call   102bd7 <insert_ordered_array>
  10228b:	c9                   	leave  
  10228c:	c3                   	ret    
  10228d:	00 00                	add    %al,(%eax)
	...

00102290 <set_frame>:
  102290:	55                   	push   %ebp
  102291:	89 e5                	mov    %esp,%ebp
  102293:	53                   	push   %ebx
  102294:	83 ec 10             	sub    $0x10,%esp
  102297:	8b 45 08             	mov    0x8(%ebp),%eax
  10229a:	c1 e8 0c             	shr    $0xc,%eax
  10229d:	89 45 f0             	mov    %eax,-0x10(%ebp)
  1022a0:	8b 45 f0             	mov    -0x10(%ebp),%eax
  1022a3:	c1 e8 05             	shr    $0x5,%eax
  1022a6:	89 45 f4             	mov    %eax,-0xc(%ebp)
  1022a9:	8b 45 f0             	mov    -0x10(%ebp),%eax
  1022ac:	83 e0 1f             	and    $0x1f,%eax
  1022af:	89 45 f8             	mov    %eax,-0x8(%ebp)
  1022b2:	8b 45 f4             	mov    -0xc(%ebp),%eax
  1022b5:	c1 e0 02             	shl    $0x2,%eax
  1022b8:	89 c2                	mov    %eax,%edx
  1022ba:	a1 24 6d 10 00       	mov    0x106d24,%eax
  1022bf:	8d 1c 02             	lea    (%edx,%eax,1),%ebx
  1022c2:	8b 45 f4             	mov    -0xc(%ebp),%eax
  1022c5:	c1 e0 02             	shl    $0x2,%eax
  1022c8:	89 c2                	mov    %eax,%edx
  1022ca:	a1 24 6d 10 00       	mov    0x106d24,%eax
  1022cf:	8d 04 02             	lea    (%edx,%eax,1),%eax
  1022d2:	8b 10                	mov    (%eax),%edx
  1022d4:	8b 4d f8             	mov    -0x8(%ebp),%ecx
  1022d7:	b8 01 00 00 00       	mov    $0x1,%eax
  1022dc:	d3 e0                	shl    %cl,%eax
  1022de:	09 d0                	or     %edx,%eax
  1022e0:	89 03                	mov    %eax,(%ebx)
  1022e2:	83 c4 10             	add    $0x10,%esp
  1022e5:	5b                   	pop    %ebx
  1022e6:	5d                   	pop    %ebp
  1022e7:	c3                   	ret    

001022e8 <clear_frame>:
  1022e8:	55                   	push   %ebp
  1022e9:	89 e5                	mov    %esp,%ebp
  1022eb:	53                   	push   %ebx
  1022ec:	83 ec 10             	sub    $0x10,%esp
  1022ef:	8b 45 08             	mov    0x8(%ebp),%eax
  1022f2:	c1 e8 0c             	shr    $0xc,%eax
  1022f5:	89 45 f0             	mov    %eax,-0x10(%ebp)
  1022f8:	8b 45 f0             	mov    -0x10(%ebp),%eax
  1022fb:	c1 e8 05             	shr    $0x5,%eax
  1022fe:	89 45 f4             	mov    %eax,-0xc(%ebp)
  102301:	8b 45 f0             	mov    -0x10(%ebp),%eax
  102304:	83 e0 1f             	and    $0x1f,%eax
  102307:	89 45 f8             	mov    %eax,-0x8(%ebp)
  10230a:	8b 45 f4             	mov    -0xc(%ebp),%eax
  10230d:	c1 e0 02             	shl    $0x2,%eax
  102310:	89 c2                	mov    %eax,%edx
  102312:	a1 24 6d 10 00       	mov    0x106d24,%eax
  102317:	8d 1c 02             	lea    (%edx,%eax,1),%ebx
  10231a:	8b 45 f4             	mov    -0xc(%ebp),%eax
  10231d:	c1 e0 02             	shl    $0x2,%eax
  102320:	89 c2                	mov    %eax,%edx
  102322:	a1 24 6d 10 00       	mov    0x106d24,%eax
  102327:	8d 04 02             	lea    (%edx,%eax,1),%eax
  10232a:	8b 10                	mov    (%eax),%edx
  10232c:	8b 4d f8             	mov    -0x8(%ebp),%ecx
  10232f:	b8 01 00 00 00       	mov    $0x1,%eax
  102334:	d3 e0                	shl    %cl,%eax
  102336:	f7 d0                	not    %eax
  102338:	21 d0                	and    %edx,%eax
  10233a:	89 03                	mov    %eax,(%ebx)
  10233c:	83 c4 10             	add    $0x10,%esp
  10233f:	5b                   	pop    %ebx
  102340:	5d                   	pop    %ebp
  102341:	c3                   	ret    

00102342 <test_frame>:
  102342:	55                   	push   %ebp
  102343:	89 e5                	mov    %esp,%ebp
  102345:	83 ec 10             	sub    $0x10,%esp
  102348:	8b 45 08             	mov    0x8(%ebp),%eax
  10234b:	c1 e8 0c             	shr    $0xc,%eax
  10234e:	89 45 f4             	mov    %eax,-0xc(%ebp)
  102351:	8b 45 f4             	mov    -0xc(%ebp),%eax
  102354:	c1 e8 05             	shr    $0x5,%eax
  102357:	89 45 f8             	mov    %eax,-0x8(%ebp)
  10235a:	8b 45 f4             	mov    -0xc(%ebp),%eax
  10235d:	83 e0 1f             	and    $0x1f,%eax
  102360:	89 45 fc             	mov    %eax,-0x4(%ebp)
  102363:	8b 45 f8             	mov    -0x8(%ebp),%eax
  102366:	c1 e0 02             	shl    $0x2,%eax
  102369:	89 c2                	mov    %eax,%edx
  10236b:	a1 24 6d 10 00       	mov    0x106d24,%eax
  102370:	8d 04 02             	lea    (%edx,%eax,1),%eax
  102373:	8b 10                	mov    (%eax),%edx
  102375:	8b 4d fc             	mov    -0x4(%ebp),%ecx
  102378:	b8 01 00 00 00       	mov    $0x1,%eax
  10237d:	d3 e0                	shl    %cl,%eax
  10237f:	21 d0                	and    %edx,%eax
  102381:	c9                   	leave  
  102382:	c3                   	ret    

00102383 <first_frame>:
  102383:	55                   	push   %ebp
  102384:	89 e5                	mov    %esp,%ebp
  102386:	83 ec 14             	sub    $0x14,%esp
  102389:	c7 45 f4 00 00 00 00 	movl   $0x0,-0xc(%ebp)
  102390:	eb 60                	jmp    1023f2 <first_frame+0x6f>
  102392:	8b 45 f4             	mov    -0xc(%ebp),%eax
  102395:	c1 e0 02             	shl    $0x2,%eax
  102398:	89 c2                	mov    %eax,%edx
  10239a:	a1 24 6d 10 00       	mov    0x106d24,%eax
  10239f:	8d 04 02             	lea    (%edx,%eax,1),%eax
  1023a2:	8b 00                	mov    (%eax),%eax
  1023a4:	83 f8 ff             	cmp    $0xffffffff,%eax
  1023a7:	74 46                	je     1023ef <first_frame+0x6c>
  1023a9:	c7 45 f8 00 00 00 00 	movl   $0x0,-0x8(%ebp)
  1023b0:	eb 37                	jmp    1023e9 <first_frame+0x66>
  1023b2:	8b 4d f8             	mov    -0x8(%ebp),%ecx
  1023b5:	b8 01 00 00 00       	mov    $0x1,%eax
  1023ba:	d3 e0                	shl    %cl,%eax
  1023bc:	89 45 fc             	mov    %eax,-0x4(%ebp)
  1023bf:	8b 45 f4             	mov    -0xc(%ebp),%eax
  1023c2:	c1 e0 02             	shl    $0x2,%eax
  1023c5:	89 c2                	mov    %eax,%edx
  1023c7:	a1 24 6d 10 00       	mov    0x106d24,%eax
  1023cc:	8d 04 02             	lea    (%edx,%eax,1),%eax
  1023cf:	8b 00                	mov    (%eax),%eax
  1023d1:	23 45 fc             	and    -0x4(%ebp),%eax
  1023d4:	85 c0                	test   %eax,%eax
  1023d6:	75 0e                	jne    1023e6 <first_frame+0x63>
  1023d8:	8b 45 f4             	mov    -0xc(%ebp),%eax
  1023db:	c1 e0 05             	shl    $0x5,%eax
  1023de:	03 45 f8             	add    -0x8(%ebp),%eax
  1023e1:	89 45 ec             	mov    %eax,-0x14(%ebp)
  1023e4:	eb 1b                	jmp    102401 <first_frame+0x7e>
  1023e6:	ff 45 f8             	incl   -0x8(%ebp)
  1023e9:	83 7d f8 1f          	cmpl   $0x1f,-0x8(%ebp)
  1023ed:	76 c3                	jbe    1023b2 <first_frame+0x2f>
  1023ef:	ff 45 f4             	incl   -0xc(%ebp)
  1023f2:	a1 20 6d 10 00       	mov    0x106d20,%eax
  1023f7:	c1 e8 05             	shr    $0x5,%eax
  1023fa:	3b 45 f4             	cmp    -0xc(%ebp),%eax
  1023fd:	77 93                	ja     102392 <first_frame+0xf>
  1023ff:	eb 03                	jmp    102404 <first_frame+0x81>
  102401:	8b 45 ec             	mov    -0x14(%ebp),%eax
  102404:	c9                   	leave  
  102405:	c3                   	ret    

00102406 <alloc_frame>:
  102406:	55                   	push   %ebp
  102407:	89 e5                	mov    %esp,%ebp
  102409:	83 ec 14             	sub    $0x14,%esp
  10240c:	8b 45 08             	mov    0x8(%ebp),%eax
  10240f:	8b 00                	mov    (%eax),%eax
  102411:	25 00 f0 ff ff       	and    $0xfffff000,%eax
  102416:	85 c0                	test   %eax,%eax
  102418:	75 6e                	jne    102488 <alloc_frame+0x82>
  10241a:	e8 64 ff ff ff       	call   102383 <first_frame>
  10241f:	89 45 fc             	mov    %eax,-0x4(%ebp)
  102422:	8b 45 fc             	mov    -0x4(%ebp),%eax
  102425:	c1 e0 0c             	shl    $0xc,%eax
  102428:	89 04 24             	mov    %eax,(%esp)
  10242b:	e8 60 fe ff ff       	call   102290 <set_frame>
  102430:	8b 55 08             	mov    0x8(%ebp),%edx
  102433:	0f b6 02             	movzbl (%edx),%eax
  102436:	0c 01                	or     $0x1,%al
  102438:	88 02                	mov    %al,(%edx)
  10243a:	83 7d 10 01          	cmpl   $0x1,0x10(%ebp)
  10243e:	0f 94 c0             	sete   %al
  102441:	8b 4d 08             	mov    0x8(%ebp),%ecx
  102444:	24 01                	and    $0x1,%al
  102446:	88 c2                	mov    %al,%dl
  102448:	00 d2                	add    %dl,%dl
  10244a:	0f b6 01             	movzbl (%ecx),%eax
  10244d:	24 fd                	and    $0xfd,%al
  10244f:	08 d0                	or     %dl,%al
  102451:	88 01                	mov    %al,(%ecx)
  102453:	83 7d 0c 01          	cmpl   $0x1,0xc(%ebp)
  102457:	0f 95 c0             	setne  %al
  10245a:	8b 4d 08             	mov    0x8(%ebp),%ecx
  10245d:	24 01                	and    $0x1,%al
  10245f:	88 c2                	mov    %al,%dl
  102461:	c0 e2 02             	shl    $0x2,%dl
  102464:	0f b6 01             	movzbl (%ecx),%eax
  102467:	24 fb                	and    $0xfb,%al
  102469:	08 d0                	or     %dl,%al
  10246b:	88 01                	mov    %al,(%ecx)
  10246d:	8b 45 fc             	mov    -0x4(%ebp),%eax
  102470:	25 ff ff 0f 00       	and    $0xfffff,%eax
  102475:	8b 55 08             	mov    0x8(%ebp),%edx
  102478:	89 c1                	mov    %eax,%ecx
  10247a:	c1 e1 0c             	shl    $0xc,%ecx
  10247d:	8b 02                	mov    (%edx),%eax
  10247f:	25 ff 0f 00 00       	and    $0xfff,%eax
  102484:	09 c8                	or     %ecx,%eax
  102486:	89 02                	mov    %eax,(%edx)
  102488:	c9                   	leave  
  102489:	c3                   	ret    

0010248a <free_frame>:
  10248a:	55                   	push   %ebp
  10248b:	89 e5                	mov    %esp,%ebp
  10248d:	83 ec 14             	sub    $0x14,%esp
  102490:	8b 45 08             	mov    0x8(%ebp),%eax
  102493:	8b 00                	mov    (%eax),%eax
  102495:	c1 e8 0c             	shr    $0xc,%eax
  102498:	89 45 fc             	mov    %eax,-0x4(%ebp)
  10249b:	83 7d fc 00          	cmpl   $0x0,-0x4(%ebp)
  10249f:	74 17                	je     1024b8 <free_frame+0x2e>
  1024a1:	8b 45 fc             	mov    -0x4(%ebp),%eax
  1024a4:	89 04 24             	mov    %eax,(%esp)
  1024a7:	e8 3c fe ff ff       	call   1022e8 <clear_frame>
  1024ac:	8b 55 08             	mov    0x8(%ebp),%edx
  1024af:	8b 02                	mov    (%edx),%eax
  1024b1:	25 ff 0f 00 00       	and    $0xfff,%eax
  1024b6:	89 02                	mov    %eax,(%edx)
  1024b8:	c9                   	leave  
  1024b9:	c3                   	ret    

001024ba <initialise_paging>:
  1024ba:	55                   	push   %ebp
  1024bb:	89 e5                	mov    %esp,%ebp
  1024bd:	83 ec 28             	sub    $0x28,%esp
  1024c0:	c7 45 f4 00 00 00 01 	movl   $0x1000000,-0xc(%ebp)
  1024c7:	8b 45 f4             	mov    -0xc(%ebp),%eax
  1024ca:	c1 e8 0c             	shr    $0xc,%eax
  1024cd:	a3 20 6d 10 00       	mov    %eax,0x106d20
  1024d2:	a1 20 6d 10 00       	mov    0x106d20,%eax
  1024d7:	c1 e8 05             	shr    $0x5,%eax
  1024da:	89 04 24             	mov    %eax,(%esp)
  1024dd:	e8 bf f3 ff ff       	call   1018a1 <kmalloc>
  1024e2:	a3 24 6d 10 00       	mov    %eax,0x106d24
  1024e7:	a1 20 6d 10 00       	mov    0x106d20,%eax
  1024ec:	c1 e8 05             	shr    $0x5,%eax
  1024ef:	8b 15 24 6d 10 00    	mov    0x106d24,%edx
  1024f5:	89 44 24 08          	mov    %eax,0x8(%esp)
  1024f9:	c7 44 24 04 00 00 00 	movl   $0x0,0x4(%esp)
  102500:	00 
  102501:	89 14 24             	mov    %edx,(%esp)
  102504:	e8 c2 e0 ff ff       	call   1005cb <memset>
  102509:	c7 04 24 04 20 00 00 	movl   $0x2004,(%esp)
  102510:	e8 25 f3 ff ff       	call   10183a <kmalloc_a>
  102515:	a3 0c 50 10 00       	mov    %eax,0x10500c
  10251a:	a1 0c 50 10 00       	mov    0x10500c,%eax
  10251f:	c7 44 24 08 04 20 00 	movl   $0x2004,0x8(%esp)
  102526:	00 
  102527:	c7 44 24 04 00 00 00 	movl   $0x0,0x4(%esp)
  10252e:	00 
  10252f:	89 04 24             	mov    %eax,(%esp)
  102532:	e8 94 e0 ff ff       	call   1005cb <memset>
  102537:	8b 15 0c 50 10 00    	mov    0x10500c,%edx
  10253d:	a1 0c 50 10 00       	mov    0x10500c,%eax
  102542:	05 00 10 00 00       	add    $0x1000,%eax
  102547:	89 82 00 20 00 00    	mov    %eax,0x2000(%edx)
  10254d:	c7 45 fc 00 00 00 00 	movl   $0x0,-0x4(%ebp)
  102554:	c7 45 fc 00 00 00 c0 	movl   $0xc0000000,-0x4(%ebp)
  10255b:	eb 23                	jmp    102580 <initialise_paging+0xc6>
  10255d:	a1 0c 50 10 00       	mov    0x10500c,%eax
  102562:	8b 55 fc             	mov    -0x4(%ebp),%edx
  102565:	89 44 24 08          	mov    %eax,0x8(%esp)
  102569:	c7 44 24 04 01 00 00 	movl   $0x1,0x4(%esp)
  102570:	00 
  102571:	89 14 24             	mov    %edx,(%esp)
  102574:	e8 4e 01 00 00       	call   1026c7 <get_page>
  102579:	81 45 fc 00 10 00 00 	addl   $0x1000,-0x4(%ebp)
  102580:	8b 45 fc             	mov    -0x4(%ebp),%eax
  102583:	3d ff ff 0f c0       	cmp    $0xc00fffff,%eax
  102588:	76 d3                	jbe    10255d <initialise_paging+0xa3>
  10258a:	c7 45 fc 00 00 00 00 	movl   $0x0,-0x4(%ebp)
  102591:	eb 3b                	jmp    1025ce <initialise_paging+0x114>
  102593:	a1 0c 50 10 00       	mov    0x10500c,%eax
  102598:	8b 55 fc             	mov    -0x4(%ebp),%edx
  10259b:	89 44 24 08          	mov    %eax,0x8(%esp)
  10259f:	c7 44 24 04 01 00 00 	movl   $0x1,0x4(%esp)
  1025a6:	00 
  1025a7:	89 14 24             	mov    %edx,(%esp)
  1025aa:	e8 18 01 00 00       	call   1026c7 <get_page>
  1025af:	c7 44 24 08 00 00 00 	movl   $0x0,0x8(%esp)
  1025b6:	00 
  1025b7:	c7 44 24 04 00 00 00 	movl   $0x0,0x4(%esp)
  1025be:	00 
  1025bf:	89 04 24             	mov    %eax,(%esp)
  1025c2:	e8 3f fe ff ff       	call   102406 <alloc_frame>
  1025c7:	81 45 fc 00 10 00 00 	addl   $0x1000,-0x4(%ebp)
  1025ce:	81 7d fc ff ff 3f 00 	cmpl   $0x3fffff,-0x4(%ebp)
  1025d5:	7e bc                	jle    102593 <initialise_paging+0xd9>
  1025d7:	c7 45 fc 00 00 00 c0 	movl   $0xc0000000,-0x4(%ebp)
  1025de:	eb 3b                	jmp    10261b <initialise_paging+0x161>
  1025e0:	a1 0c 50 10 00       	mov    0x10500c,%eax
  1025e5:	8b 55 fc             	mov    -0x4(%ebp),%edx
  1025e8:	89 44 24 08          	mov    %eax,0x8(%esp)
  1025ec:	c7 44 24 04 01 00 00 	movl   $0x1,0x4(%esp)
  1025f3:	00 
  1025f4:	89 14 24             	mov    %edx,(%esp)
  1025f7:	e8 cb 00 00 00       	call   1026c7 <get_page>
  1025fc:	c7 44 24 08 00 00 00 	movl   $0x0,0x8(%esp)
  102603:	00 
  102604:	c7 44 24 04 00 00 00 	movl   $0x0,0x4(%esp)
  10260b:	00 
  10260c:	89 04 24             	mov    %eax,(%esp)
  10260f:	e8 f2 fd ff ff       	call   102406 <alloc_frame>
  102614:	81 45 fc 00 10 00 00 	addl   $0x1000,-0x4(%ebp)
  10261b:	8b 45 fc             	mov    -0x4(%ebp),%eax
  10261e:	3d ff ff 0f c0       	cmp    $0xc00fffff,%eax
  102623:	76 bb                	jbe    1025e0 <initialise_paging+0x126>
  102625:	c7 44 24 04 91 27 10 	movl   $0x102791,0x4(%esp)
  10262c:	00 
  10262d:	c7 04 24 0e 00 00 00 	movl   $0xe,(%esp)
  102634:	e8 cb ec ff ff       	call   101304 <register_interrupt_handler>
  102639:	a1 0c 50 10 00       	mov    0x10500c,%eax
  10263e:	89 04 24             	mov    %eax,(%esp)
  102641:	e8 52 00 00 00       	call   102698 <switch_page_directory>
  102646:	c7 44 24 10 00 00 00 	movl   $0x0,0x10(%esp)
  10264d:	00 
  10264e:	c7 44 24 0c 00 00 00 	movl   $0x0,0xc(%esp)
  102655:	00 
  102656:	c7 44 24 08 00 f0 ff 	movl   $0xcffff000,0x8(%esp)
  10265d:	cf 
  10265e:	c7 44 24 04 00 00 10 	movl   $0xc0100000,0x4(%esp)
  102665:	c0 
  102666:	c7 04 24 00 00 00 c0 	movl   $0xc0000000,(%esp)
  10266d:	e8 09 f5 ff ff       	call   101b7b <create_heap>
  102672:	a3 08 50 10 00       	mov    %eax,0x105008
  102677:	a1 0c 50 10 00       	mov    0x10500c,%eax
  10267c:	89 04 24             	mov    %eax,(%esp)
  10267f:	e8 6e 03 00 00       	call   1029f2 <clone_directory>
  102684:	a3 10 50 10 00       	mov    %eax,0x105010
  102689:	a1 10 50 10 00       	mov    0x105010,%eax
  10268e:	89 04 24             	mov    %eax,(%esp)
  102691:	e8 02 00 00 00       	call   102698 <switch_page_directory>
  102696:	c9                   	leave  
  102697:	c3                   	ret    

00102698 <switch_page_directory>:
  102698:	55                   	push   %ebp
  102699:	89 e5                	mov    %esp,%ebp
  10269b:	83 ec 10             	sub    $0x10,%esp
  10269e:	8b 45 08             	mov    0x8(%ebp),%eax
  1026a1:	a3 10 50 10 00       	mov    %eax,0x105010
  1026a6:	8b 45 08             	mov    0x8(%ebp),%eax
  1026a9:	8b 80 00 20 00 00    	mov    0x2000(%eax),%eax
  1026af:	0f 22 d8             	mov    %eax,%cr3
  1026b2:	0f 20 c0             	mov    %cr0,%eax
  1026b5:	89 45 fc             	mov    %eax,-0x4(%ebp)
  1026b8:	81 4d fc 00 00 00 80 	orl    $0x80000000,-0x4(%ebp)
  1026bf:	8b 45 fc             	mov    -0x4(%ebp),%eax
  1026c2:	0f 22 c0             	mov    %eax,%cr0
  1026c5:	c9                   	leave  
  1026c6:	c3                   	ret    

001026c7 <get_page>:
  1026c7:	55                   	push   %ebp
  1026c8:	89 e5                	mov    %esp,%ebp
  1026ca:	53                   	push   %ebx
  1026cb:	83 ec 24             	sub    $0x24,%esp
  1026ce:	8b 45 08             	mov    0x8(%ebp),%eax
  1026d1:	c1 e8 0c             	shr    $0xc,%eax
  1026d4:	89 45 08             	mov    %eax,0x8(%ebp)
  1026d7:	8b 45 08             	mov    0x8(%ebp),%eax
  1026da:	c1 e8 0a             	shr    $0xa,%eax
  1026dd:	89 45 f8             	mov    %eax,-0x8(%ebp)
  1026e0:	8b 55 f8             	mov    -0x8(%ebp),%edx
  1026e3:	8b 45 10             	mov    0x10(%ebp),%eax
  1026e6:	8b 04 90             	mov    (%eax,%edx,4),%eax
  1026e9:	85 c0                	test   %eax,%eax
  1026eb:	74 1d                	je     10270a <get_page+0x43>
  1026ed:	8b 55 f8             	mov    -0x8(%ebp),%edx
  1026f0:	8b 45 10             	mov    0x10(%ebp),%eax
  1026f3:	8b 04 90             	mov    (%eax,%edx,4),%eax
  1026f6:	89 c2                	mov    %eax,%edx
  1026f8:	8b 45 08             	mov    0x8(%ebp),%eax
  1026fb:	25 ff 03 00 00       	and    $0x3ff,%eax
  102700:	c1 e0 02             	shl    $0x2,%eax
  102703:	01 c2                	add    %eax,%edx
  102705:	89 55 e8             	mov    %edx,-0x18(%ebp)
  102708:	eb 7e                	jmp    102788 <get_page+0xc1>
  10270a:	83 7d 0c 00          	cmpl   $0x0,0xc(%ebp)
  10270e:	74 71                	je     102781 <get_page+0xba>
  102710:	8b 5d f8             	mov    -0x8(%ebp),%ebx
  102713:	8d 45 f4             	lea    -0xc(%ebp),%eax
  102716:	89 44 24 04          	mov    %eax,0x4(%esp)
  10271a:	c7 04 24 00 10 00 00 	movl   $0x1000,(%esp)
  102721:	e8 59 f1 ff ff       	call   10187f <kmalloc_ap>
  102726:	89 c2                	mov    %eax,%edx
  102728:	8b 45 10             	mov    0x10(%ebp),%eax
  10272b:	89 14 98             	mov    %edx,(%eax,%ebx,4)
  10272e:	8b 55 f8             	mov    -0x8(%ebp),%edx
  102731:	8b 45 10             	mov    0x10(%ebp),%eax
  102734:	8b 04 90             	mov    (%eax,%edx,4),%eax
  102737:	c7 44 24 08 00 10 00 	movl   $0x1000,0x8(%esp)
  10273e:	00 
  10273f:	c7 44 24 04 00 00 00 	movl   $0x0,0x4(%esp)
  102746:	00 
  102747:	89 04 24             	mov    %eax,(%esp)
  10274a:	e8 7c de ff ff       	call   1005cb <memset>
  10274f:	8b 4d f8             	mov    -0x8(%ebp),%ecx
  102752:	8b 45 f4             	mov    -0xc(%ebp),%eax
  102755:	89 c2                	mov    %eax,%edx
  102757:	83 ca 07             	or     $0x7,%edx
  10275a:	8b 45 10             	mov    0x10(%ebp),%eax
  10275d:	89 94 88 00 10 00 00 	mov    %edx,0x1000(%eax,%ecx,4)
  102764:	8b 55 f8             	mov    -0x8(%ebp),%edx
  102767:	8b 45 10             	mov    0x10(%ebp),%eax
  10276a:	8b 04 90             	mov    (%eax,%edx,4),%eax
  10276d:	89 c2                	mov    %eax,%edx
  10276f:	8b 45 08             	mov    0x8(%ebp),%eax
  102772:	25 ff 03 00 00       	and    $0x3ff,%eax
  102777:	c1 e0 02             	shl    $0x2,%eax
  10277a:	01 c2                	add    %eax,%edx
  10277c:	89 55 e8             	mov    %edx,-0x18(%ebp)
  10277f:	eb 07                	jmp    102788 <get_page+0xc1>
  102781:	c7 45 e8 00 00 00 00 	movl   $0x0,-0x18(%ebp)
  102788:	8b 45 e8             	mov    -0x18(%ebp),%eax
  10278b:	83 c4 24             	add    $0x24,%esp
  10278e:	5b                   	pop    %ebx
  10278f:	5d                   	pop    %ebp
  102790:	c3                   	ret    

00102791 <page_fault>:
  102791:	55                   	push   %ebp
  102792:	89 e5                	mov    %esp,%ebp
  102794:	83 ec 38             	sub    $0x38,%esp
  102797:	0f 20 d0             	mov    %cr2,%eax
  10279a:	89 45 e8             	mov    %eax,-0x18(%ebp)
  10279d:	8b 45 08             	mov    0x8(%ebp),%eax
  1027a0:	8b 40 28             	mov    0x28(%eax),%eax
  1027a3:	83 e0 01             	and    $0x1,%eax
  1027a6:	85 c0                	test   %eax,%eax
  1027a8:	0f 94 c0             	sete   %al
  1027ab:	0f b6 c0             	movzbl %al,%eax
  1027ae:	89 45 ec             	mov    %eax,-0x14(%ebp)
  1027b1:	8b 45 08             	mov    0x8(%ebp),%eax
  1027b4:	8b 40 28             	mov    0x28(%eax),%eax
  1027b7:	83 e0 02             	and    $0x2,%eax
  1027ba:	89 45 f0             	mov    %eax,-0x10(%ebp)
  1027bd:	8b 45 08             	mov    0x8(%ebp),%eax
  1027c0:	8b 40 28             	mov    0x28(%eax),%eax
  1027c3:	83 e0 04             	and    $0x4,%eax
  1027c6:	89 45 f4             	mov    %eax,-0xc(%ebp)
  1027c9:	8b 45 08             	mov    0x8(%ebp),%eax
  1027cc:	8b 40 28             	mov    0x28(%eax),%eax
  1027cf:	83 e0 08             	and    $0x8,%eax
  1027d2:	89 45 f8             	mov    %eax,-0x8(%ebp)
  1027d5:	8b 45 08             	mov    0x8(%ebp),%eax
  1027d8:	8b 40 28             	mov    0x28(%eax),%eax
  1027db:	83 e0 10             	and    $0x10,%eax
  1027de:	89 45 fc             	mov    %eax,-0x4(%ebp)
  1027e1:	c7 04 24 ac 41 10 00 	movl   $0x1041ac,(%esp)
  1027e8:	e8 a2 db ff ff       	call   10038f <monitor_write>
  1027ed:	83 7d ec 00          	cmpl   $0x0,-0x14(%ebp)
  1027f1:	74 0c                	je     1027ff <page_fault+0x6e>
  1027f3:	c7 04 24 bb 41 10 00 	movl   $0x1041bb,(%esp)
  1027fa:	e8 90 db ff ff       	call   10038f <monitor_write>
  1027ff:	83 7d f0 00          	cmpl   $0x0,-0x10(%ebp)
  102803:	74 0c                	je     102811 <page_fault+0x80>
  102805:	c7 04 24 c4 41 10 00 	movl   $0x1041c4,(%esp)
  10280c:	e8 7e db ff ff       	call   10038f <monitor_write>
  102811:	83 7d f4 00          	cmpl   $0x0,-0xc(%ebp)
  102815:	74 0c                	je     102823 <page_fault+0x92>
  102817:	c7 04 24 cf 41 10 00 	movl   $0x1041cf,(%esp)
  10281e:	e8 6c db ff ff       	call   10038f <monitor_write>
  102823:	83 7d f8 00          	cmpl   $0x0,-0x8(%ebp)
  102827:	74 0c                	je     102835 <page_fault+0xa4>
  102829:	c7 04 24 da 41 10 00 	movl   $0x1041da,(%esp)
  102830:	e8 5a db ff ff       	call   10038f <monitor_write>
  102835:	c7 04 24 e4 41 10 00 	movl   $0x1041e4,(%esp)
  10283c:	e8 4e db ff ff       	call   10038f <monitor_write>
  102841:	8b 45 e8             	mov    -0x18(%ebp),%eax
  102844:	89 04 24             	mov    %eax,(%esp)
  102847:	e8 78 db ff ff       	call   1003c4 <monitor_write_hex>
  10284c:	c7 04 24 ec 41 10 00 	movl   $0x1041ec,(%esp)
  102853:	e8 37 db ff ff       	call   10038f <monitor_write>
  102858:	8b 45 08             	mov    0x8(%ebp),%eax
  10285b:	8b 40 2c             	mov    0x2c(%eax),%eax
  10285e:	89 04 24             	mov    %eax,(%esp)
  102861:	e8 5e db ff ff       	call   1003c4 <monitor_write_hex>
  102866:	c7 04 24 f5 41 10 00 	movl   $0x1041f5,(%esp)
  10286d:	e8 1d db ff ff       	call   10038f <monitor_write>
  102872:	c7 44 24 08 e6 00 00 	movl   $0xe6,0x8(%esp)
  102879:	00 
  10287a:	c7 44 24 04 f7 41 10 	movl   $0x1041f7,0x4(%esp)
  102881:	00 
  102882:	c7 04 24 00 42 10 00 	movl   $0x104200,(%esp)
  102889:	e8 80 de ff ff       	call   10070e <panic>
  10288e:	c9                   	leave  
  10288f:	c3                   	ret    

00102890 <clone_table>:
  102890:	55                   	push   %ebp
  102891:	89 e5                	mov    %esp,%ebp
  102893:	83 ec 28             	sub    $0x28,%esp
  102896:	8b 45 0c             	mov    0xc(%ebp),%eax
  102899:	89 44 24 04          	mov    %eax,0x4(%esp)
  10289d:	c7 04 24 00 10 00 00 	movl   $0x1000,(%esp)
  1028a4:	e8 d6 ef ff ff       	call   10187f <kmalloc_ap>
  1028a9:	89 45 f8             	mov    %eax,-0x8(%ebp)
  1028ac:	c7 44 24 08 04 20 00 	movl   $0x2004,0x8(%esp)
  1028b3:	00 
  1028b4:	c7 44 24 04 00 00 00 	movl   $0x0,0x4(%esp)
  1028bb:	00 
  1028bc:	8b 45 f8             	mov    -0x8(%ebp),%eax
  1028bf:	89 04 24             	mov    %eax,(%esp)
  1028c2:	e8 04 dd ff ff       	call   1005cb <memset>
  1028c7:	c7 45 fc 00 00 00 00 	movl   $0x0,-0x4(%ebp)
  1028ce:	e9 0d 01 00 00       	jmp    1029e0 <clone_table+0x150>
  1028d3:	8b 55 fc             	mov    -0x4(%ebp),%edx
  1028d6:	8b 45 08             	mov    0x8(%ebp),%eax
  1028d9:	8b 04 90             	mov    (%eax,%edx,4),%eax
  1028dc:	c1 e8 0c             	shr    $0xc,%eax
  1028df:	85 c0                	test   %eax,%eax
  1028e1:	0f 84 f6 00 00 00    	je     1029dd <clone_table+0x14d>
  1028e7:	8b 55 f8             	mov    -0x8(%ebp),%edx
  1028ea:	8b 45 fc             	mov    -0x4(%ebp),%eax
  1028ed:	c1 e0 02             	shl    $0x2,%eax
  1028f0:	8d 04 02             	lea    (%edx,%eax,1),%eax
  1028f3:	c7 44 24 08 00 00 00 	movl   $0x0,0x8(%esp)
  1028fa:	00 
  1028fb:	c7 44 24 04 00 00 00 	movl   $0x0,0x4(%esp)
  102902:	00 
  102903:	89 04 24             	mov    %eax,(%esp)
  102906:	e8 fb fa ff ff       	call   102406 <alloc_frame>
  10290b:	8b 55 fc             	mov    -0x4(%ebp),%edx
  10290e:	8b 45 08             	mov    0x8(%ebp),%eax
  102911:	0f b6 04 90          	movzbl (%eax,%edx,4),%eax
  102915:	24 01                	and    $0x1,%al
  102917:	84 c0                	test   %al,%al
  102919:	74 0f                	je     10292a <clone_table+0x9a>
  10291b:	8b 4d fc             	mov    -0x4(%ebp),%ecx
  10291e:	8b 55 f8             	mov    -0x8(%ebp),%edx
  102921:	0f b6 04 8a          	movzbl (%edx,%ecx,4),%eax
  102925:	0c 01                	or     $0x1,%al
  102927:	88 04 8a             	mov    %al,(%edx,%ecx,4)
  10292a:	8b 55 fc             	mov    -0x4(%ebp),%edx
  10292d:	8b 45 08             	mov    0x8(%ebp),%eax
  102930:	0f b6 04 90          	movzbl (%eax,%edx,4),%eax
  102934:	d0 e8                	shr    %al
  102936:	24 01                	and    $0x1,%al
  102938:	84 c0                	test   %al,%al
  10293a:	74 0f                	je     10294b <clone_table+0xbb>
  10293c:	8b 4d fc             	mov    -0x4(%ebp),%ecx
  10293f:	8b 55 f8             	mov    -0x8(%ebp),%edx
  102942:	0f b6 04 8a          	movzbl (%edx,%ecx,4),%eax
  102946:	0c 02                	or     $0x2,%al
  102948:	88 04 8a             	mov    %al,(%edx,%ecx,4)
  10294b:	8b 55 fc             	mov    -0x4(%ebp),%edx
  10294e:	8b 45 08             	mov    0x8(%ebp),%eax
  102951:	0f b6 04 90          	movzbl (%eax,%edx,4),%eax
  102955:	c0 e8 02             	shr    $0x2,%al
  102958:	24 01                	and    $0x1,%al
  10295a:	84 c0                	test   %al,%al
  10295c:	74 0f                	je     10296d <clone_table+0xdd>
  10295e:	8b 4d fc             	mov    -0x4(%ebp),%ecx
  102961:	8b 55 f8             	mov    -0x8(%ebp),%edx
  102964:	0f b6 04 8a          	movzbl (%edx,%ecx,4),%eax
  102968:	0c 04                	or     $0x4,%al
  10296a:	88 04 8a             	mov    %al,(%edx,%ecx,4)
  10296d:	8b 55 fc             	mov    -0x4(%ebp),%edx
  102970:	8b 45 08             	mov    0x8(%ebp),%eax
  102973:	0f b6 04 90          	movzbl (%eax,%edx,4),%eax
  102977:	c0 e8 03             	shr    $0x3,%al
  10297a:	24 01                	and    $0x1,%al
  10297c:	84 c0                	test   %al,%al
  10297e:	74 0f                	je     10298f <clone_table+0xff>
  102980:	8b 4d fc             	mov    -0x4(%ebp),%ecx
  102983:	8b 55 f8             	mov    -0x8(%ebp),%edx
  102986:	0f b6 04 8a          	movzbl (%edx,%ecx,4),%eax
  10298a:	0c 08                	or     $0x8,%al
  10298c:	88 04 8a             	mov    %al,(%edx,%ecx,4)
  10298f:	8b 55 fc             	mov    -0x4(%ebp),%edx
  102992:	8b 45 08             	mov    0x8(%ebp),%eax
  102995:	0f b6 04 90          	movzbl (%eax,%edx,4),%eax
  102999:	c0 e8 04             	shr    $0x4,%al
  10299c:	24 01                	and    $0x1,%al
  10299e:	84 c0                	test   %al,%al
  1029a0:	74 0f                	je     1029b1 <clone_table+0x121>
  1029a2:	8b 4d fc             	mov    -0x4(%ebp),%ecx
  1029a5:	8b 55 f8             	mov    -0x8(%ebp),%edx
  1029a8:	0f b6 04 8a          	movzbl (%edx,%ecx,4),%eax
  1029ac:	0c 10                	or     $0x10,%al
  1029ae:	88 04 8a             	mov    %al,(%edx,%ecx,4)
  1029b1:	8b 55 fc             	mov    -0x4(%ebp),%edx
  1029b4:	8b 45 f8             	mov    -0x8(%ebp),%eax
  1029b7:	8b 04 90             	mov    (%eax,%edx,4),%eax
  1029ba:	c1 e8 0c             	shr    $0xc,%eax
  1029bd:	89 c1                	mov    %eax,%ecx
  1029bf:	c1 e1 0c             	shl    $0xc,%ecx
  1029c2:	8b 55 fc             	mov    -0x4(%ebp),%edx
  1029c5:	8b 45 08             	mov    0x8(%ebp),%eax
  1029c8:	8b 04 90             	mov    (%eax,%edx,4),%eax
  1029cb:	c1 e8 0c             	shr    $0xc,%eax
  1029ce:	c1 e0 0c             	shl    $0xc,%eax
  1029d1:	89 4c 24 04          	mov    %ecx,0x4(%esp)
  1029d5:	89 04 24             	mov    %eax,(%esp)
  1029d8:	e8 76 0f 00 00       	call   103953 <copy_page_physical>
  1029dd:	ff 45 fc             	incl   -0x4(%ebp)
  1029e0:	81 7d fc ff 03 00 00 	cmpl   $0x3ff,-0x4(%ebp)
  1029e7:	0f 8e e6 fe ff ff    	jle    1028d3 <clone_table+0x43>
  1029ed:	8b 45 f8             	mov    -0x8(%ebp),%eax
  1029f0:	c9                   	leave  
  1029f1:	c3                   	ret    

001029f2 <clone_directory>:
  1029f2:	55                   	push   %ebp
  1029f3:	89 e5                	mov    %esp,%ebp
  1029f5:	53                   	push   %ebx
  1029f6:	83 ec 34             	sub    $0x34,%esp
  1029f9:	8d 45 ec             	lea    -0x14(%ebp),%eax
  1029fc:	89 44 24 04          	mov    %eax,0x4(%esp)
  102a00:	c7 04 24 04 20 00 00 	movl   $0x2004,(%esp)
  102a07:	e8 73 ee ff ff       	call   10187f <kmalloc_ap>
  102a0c:	89 45 f0             	mov    %eax,-0x10(%ebp)
  102a0f:	c7 44 24 08 04 20 00 	movl   $0x2004,0x8(%esp)
  102a16:	00 
  102a17:	c7 44 24 04 00 00 00 	movl   $0x0,0x4(%esp)
  102a1e:	00 
  102a1f:	8b 45 f0             	mov    -0x10(%ebp),%eax
  102a22:	89 04 24             	mov    %eax,(%esp)
  102a25:	e8 a1 db ff ff       	call   1005cb <memset>
  102a2a:	c7 45 f4 00 10 00 00 	movl   $0x1000,-0xc(%ebp)
  102a31:	8b 45 ec             	mov    -0x14(%ebp),%eax
  102a34:	89 c2                	mov    %eax,%edx
  102a36:	03 55 f4             	add    -0xc(%ebp),%edx
  102a39:	8b 45 f0             	mov    -0x10(%ebp),%eax
  102a3c:	89 90 00 20 00 00    	mov    %edx,0x2000(%eax)
  102a42:	c7 45 f8 00 00 00 00 	movl   $0x0,-0x8(%ebp)
  102a49:	e9 8f 00 00 00       	jmp    102add <clone_directory+0xeb>
  102a4e:	8b 45 f8             	mov    -0x8(%ebp),%eax
  102a51:	8b 55 08             	mov    0x8(%ebp),%edx
  102a54:	8b 04 82             	mov    (%edx,%eax,4),%eax
  102a57:	85 c0                	test   %eax,%eax
  102a59:	74 7f                	je     102ada <clone_directory+0xe8>
  102a5b:	8b 15 0c 50 10 00    	mov    0x10500c,%edx
  102a61:	8b 45 f8             	mov    -0x8(%ebp),%eax
  102a64:	8b 0c 82             	mov    (%edx,%eax,4),%ecx
  102a67:	8b 55 f8             	mov    -0x8(%ebp),%edx
  102a6a:	8b 45 08             	mov    0x8(%ebp),%eax
  102a6d:	8b 04 90             	mov    (%eax,%edx,4),%eax
  102a70:	39 c1                	cmp    %eax,%ecx
  102a72:	75 2e                	jne    102aa2 <clone_directory+0xb0>
  102a74:	8b 4d f8             	mov    -0x8(%ebp),%ecx
  102a77:	8b 55 f8             	mov    -0x8(%ebp),%edx
  102a7a:	8b 45 08             	mov    0x8(%ebp),%eax
  102a7d:	8b 14 90             	mov    (%eax,%edx,4),%edx
  102a80:	8b 45 f0             	mov    -0x10(%ebp),%eax
  102a83:	89 14 88             	mov    %edx,(%eax,%ecx,4)
  102a86:	8b 4d f8             	mov    -0x8(%ebp),%ecx
  102a89:	8b 55 f8             	mov    -0x8(%ebp),%edx
  102a8c:	8b 45 08             	mov    0x8(%ebp),%eax
  102a8f:	8b 94 90 00 10 00 00 	mov    0x1000(%eax,%edx,4),%edx
  102a96:	8b 45 f0             	mov    -0x10(%ebp),%eax
  102a99:	89 94 88 00 10 00 00 	mov    %edx,0x1000(%eax,%ecx,4)
  102aa0:	eb 38                	jmp    102ada <clone_directory+0xe8>
  102aa2:	8b 5d f8             	mov    -0x8(%ebp),%ebx
  102aa5:	8b 55 f8             	mov    -0x8(%ebp),%edx
  102aa8:	8b 45 08             	mov    0x8(%ebp),%eax
  102aab:	8b 14 90             	mov    (%eax,%edx,4),%edx
  102aae:	8d 45 e8             	lea    -0x18(%ebp),%eax
  102ab1:	89 44 24 04          	mov    %eax,0x4(%esp)
  102ab5:	89 14 24             	mov    %edx,(%esp)
  102ab8:	e8 d3 fd ff ff       	call   102890 <clone_table>
  102abd:	89 c2                	mov    %eax,%edx
  102abf:	8b 45 f0             	mov    -0x10(%ebp),%eax
  102ac2:	89 14 98             	mov    %edx,(%eax,%ebx,4)
  102ac5:	8b 4d f8             	mov    -0x8(%ebp),%ecx
  102ac8:	8b 45 e8             	mov    -0x18(%ebp),%eax
  102acb:	89 c2                	mov    %eax,%edx
  102acd:	83 ca 07             	or     $0x7,%edx
  102ad0:	8b 45 f0             	mov    -0x10(%ebp),%eax
  102ad3:	89 94 88 00 10 00 00 	mov    %edx,0x1000(%eax,%ecx,4)
  102ada:	ff 45 f8             	incl   -0x8(%ebp)
  102add:	81 7d f8 ff 03 00 00 	cmpl   $0x3ff,-0x8(%ebp)
  102ae4:	0f 8e 64 ff ff ff    	jle    102a4e <clone_directory+0x5c>
  102aea:	8b 45 f0             	mov    -0x10(%ebp),%eax
  102aed:	83 c4 34             	add    $0x34,%esp
  102af0:	5b                   	pop    %ebx
  102af1:	5d                   	pop    %ebp
  102af2:	c3                   	ret    
	...

00102af4 <standard_lessthan_predicate>:
  102af4:	55                   	push   %ebp
  102af5:	89 e5                	mov    %esp,%ebp
  102af7:	8b 45 08             	mov    0x8(%ebp),%eax
  102afa:	3b 45 0c             	cmp    0xc(%ebp),%eax
  102afd:	0f 92 c0             	setb   %al
  102b00:	0f b6 c0             	movzbl %al,%eax
  102b03:	5d                   	pop    %ebp
  102b04:	c3                   	ret    

00102b05 <create_ordered_array>:
  102b05:	55                   	push   %ebp
  102b06:	89 e5                	mov    %esp,%ebp
  102b08:	53                   	push   %ebx
  102b09:	83 ec 24             	sub    $0x24,%esp
  102b0c:	8b 5d 08             	mov    0x8(%ebp),%ebx
  102b0f:	8b 45 0c             	mov    0xc(%ebp),%eax
  102b12:	c1 e0 02             	shl    $0x2,%eax
  102b15:	89 04 24             	mov    %eax,(%esp)
  102b18:	e8 84 ed ff ff       	call   1018a1 <kmalloc>
  102b1d:	89 45 ec             	mov    %eax,-0x14(%ebp)
  102b20:	8b 45 0c             	mov    0xc(%ebp),%eax
  102b23:	c1 e0 02             	shl    $0x2,%eax
  102b26:	8b 55 ec             	mov    -0x14(%ebp),%edx
  102b29:	89 44 24 08          	mov    %eax,0x8(%esp)
  102b2d:	c7 44 24 04 00 00 00 	movl   $0x0,0x4(%esp)
  102b34:	00 
  102b35:	89 14 24             	mov    %edx,(%esp)
  102b38:	e8 8e da ff ff       	call   1005cb <memset>
  102b3d:	c7 45 f0 00 00 00 00 	movl   $0x0,-0x10(%ebp)
  102b44:	8b 45 0c             	mov    0xc(%ebp),%eax
  102b47:	89 45 f4             	mov    %eax,-0xc(%ebp)
  102b4a:	8b 45 10             	mov    0x10(%ebp),%eax
  102b4d:	89 45 f8             	mov    %eax,-0x8(%ebp)
  102b50:	8b 45 ec             	mov    -0x14(%ebp),%eax
  102b53:	89 03                	mov    %eax,(%ebx)
  102b55:	8b 45 f0             	mov    -0x10(%ebp),%eax
  102b58:	89 43 04             	mov    %eax,0x4(%ebx)
  102b5b:	8b 45 f4             	mov    -0xc(%ebp),%eax
  102b5e:	89 43 08             	mov    %eax,0x8(%ebx)
  102b61:	8b 45 f8             	mov    -0x8(%ebp),%eax
  102b64:	89 43 0c             	mov    %eax,0xc(%ebx)
  102b67:	89 d8                	mov    %ebx,%eax
  102b69:	83 c4 24             	add    $0x24,%esp
  102b6c:	5b                   	pop    %ebx
  102b6d:	5d                   	pop    %ebp
  102b6e:	c2 04 00             	ret    $0x4

00102b71 <place_ordered_array>:
  102b71:	55                   	push   %ebp
  102b72:	89 e5                	mov    %esp,%ebp
  102b74:	53                   	push   %ebx
  102b75:	83 ec 24             	sub    $0x24,%esp
  102b78:	8b 5d 08             	mov    0x8(%ebp),%ebx
  102b7b:	8b 45 0c             	mov    0xc(%ebp),%eax
  102b7e:	89 45 ec             	mov    %eax,-0x14(%ebp)
  102b81:	8b 45 10             	mov    0x10(%ebp),%eax
  102b84:	c1 e0 02             	shl    $0x2,%eax
  102b87:	8b 55 ec             	mov    -0x14(%ebp),%edx
  102b8a:	89 44 24 08          	mov    %eax,0x8(%esp)
  102b8e:	c7 44 24 04 00 00 00 	movl   $0x0,0x4(%esp)
  102b95:	00 
  102b96:	89 14 24             	mov    %edx,(%esp)
  102b99:	e8 2d da ff ff       	call   1005cb <memset>
  102b9e:	c7 45 f0 00 00 00 00 	movl   $0x0,-0x10(%ebp)
  102ba5:	8b 45 10             	mov    0x10(%ebp),%eax
  102ba8:	89 45 f4             	mov    %eax,-0xc(%ebp)
  102bab:	8b 45 14             	mov    0x14(%ebp),%eax
  102bae:	89 45 f8             	mov    %eax,-0x8(%ebp)
  102bb1:	8b 45 ec             	mov    -0x14(%ebp),%eax
  102bb4:	89 03                	mov    %eax,(%ebx)
  102bb6:	8b 45 f0             	mov    -0x10(%ebp),%eax
  102bb9:	89 43 04             	mov    %eax,0x4(%ebx)
  102bbc:	8b 45 f4             	mov    -0xc(%ebp),%eax
  102bbf:	89 43 08             	mov    %eax,0x8(%ebx)
  102bc2:	8b 45 f8             	mov    -0x8(%ebp),%eax
  102bc5:	89 43 0c             	mov    %eax,0xc(%ebx)
  102bc8:	89 d8                	mov    %ebx,%eax
  102bca:	83 c4 24             	add    $0x24,%esp
  102bcd:	5b                   	pop    %ebx
  102bce:	5d                   	pop    %ebp
  102bcf:	c2 04 00             	ret    $0x4

00102bd2 <destroy_ordered_array>:
  102bd2:	55                   	push   %ebp
  102bd3:	89 e5                	mov    %esp,%ebp
  102bd5:	5d                   	pop    %ebp
  102bd6:	c3                   	ret    

00102bd7 <insert_ordered_array>:
  102bd7:	55                   	push   %ebp
  102bd8:	89 e5                	mov    %esp,%ebp
  102bda:	83 ec 28             	sub    $0x28,%esp
  102bdd:	8b 45 0c             	mov    0xc(%ebp),%eax
  102be0:	8b 40 0c             	mov    0xc(%eax),%eax
  102be3:	85 c0                	test   %eax,%eax
  102be5:	75 1c                	jne    102c03 <insert_ordered_array+0x2c>
  102be7:	c7 44 24 08 0b 42 10 	movl   $0x10420b,0x8(%esp)
  102bee:	00 
  102bef:	c7 44 24 04 29 00 00 	movl   $0x29,0x4(%esp)
  102bf6:	00 
  102bf7:	c7 04 24 1c 42 10 00 	movl   $0x10421c,(%esp)
  102bfe:	e8 65 db ff ff       	call   100768 <panic_assert>
  102c03:	c7 45 f4 00 00 00 00 	movl   $0x0,-0xc(%ebp)
  102c0a:	eb 03                	jmp    102c0f <insert_ordered_array+0x38>
  102c0c:	ff 45 f4             	incl   -0xc(%ebp)
  102c0f:	8b 45 0c             	mov    0xc(%ebp),%eax
  102c12:	8b 40 04             	mov    0x4(%eax),%eax
  102c15:	3b 45 f4             	cmp    -0xc(%ebp),%eax
  102c18:	76 26                	jbe    102c40 <insert_ordered_array+0x69>
  102c1a:	8b 45 0c             	mov    0xc(%ebp),%eax
  102c1d:	8b 48 0c             	mov    0xc(%eax),%ecx
  102c20:	8b 45 0c             	mov    0xc(%ebp),%eax
  102c23:	8b 10                	mov    (%eax),%edx
  102c25:	8b 45 f4             	mov    -0xc(%ebp),%eax
  102c28:	c1 e0 02             	shl    $0x2,%eax
  102c2b:	8d 04 02             	lea    (%edx,%eax,1),%eax
  102c2e:	8b 10                	mov    (%eax),%edx
  102c30:	8b 45 08             	mov    0x8(%ebp),%eax
  102c33:	89 44 24 04          	mov    %eax,0x4(%esp)
  102c37:	89 14 24             	mov    %edx,(%esp)
  102c3a:	ff d1                	call   *%ecx
  102c3c:	84 c0                	test   %al,%al
  102c3e:	75 cc                	jne    102c0c <insert_ordered_array+0x35>
  102c40:	8b 45 0c             	mov    0xc(%ebp),%eax
  102c43:	8b 40 04             	mov    0x4(%eax),%eax
  102c46:	3b 45 f4             	cmp    -0xc(%ebp),%eax
  102c49:	75 24                	jne    102c6f <insert_ordered_array+0x98>
  102c4b:	8b 45 0c             	mov    0xc(%ebp),%eax
  102c4e:	8b 10                	mov    (%eax),%edx
  102c50:	8b 45 0c             	mov    0xc(%ebp),%eax
  102c53:	8b 48 04             	mov    0x4(%eax),%ecx
  102c56:	8d 04 8d 00 00 00 00 	lea    0x0(,%ecx,4),%eax
  102c5d:	01 c2                	add    %eax,%edx
  102c5f:	8b 45 08             	mov    0x8(%ebp),%eax
  102c62:	89 02                	mov    %eax,(%edx)
  102c64:	8d 51 01             	lea    0x1(%ecx),%edx
  102c67:	8b 45 0c             	mov    0xc(%ebp),%eax
  102c6a:	89 50 04             	mov    %edx,0x4(%eax)
  102c6d:	eb 6f                	jmp    102cde <insert_ordered_array+0x107>
  102c6f:	8b 45 0c             	mov    0xc(%ebp),%eax
  102c72:	8b 10                	mov    (%eax),%edx
  102c74:	8b 45 f4             	mov    -0xc(%ebp),%eax
  102c77:	c1 e0 02             	shl    $0x2,%eax
  102c7a:	8d 04 02             	lea    (%edx,%eax,1),%eax
  102c7d:	8b 00                	mov    (%eax),%eax
  102c7f:	89 45 f8             	mov    %eax,-0x8(%ebp)
  102c82:	8b 45 0c             	mov    0xc(%ebp),%eax
  102c85:	8b 10                	mov    (%eax),%edx
  102c87:	8b 45 f4             	mov    -0xc(%ebp),%eax
  102c8a:	c1 e0 02             	shl    $0x2,%eax
  102c8d:	01 c2                	add    %eax,%edx
  102c8f:	8b 45 08             	mov    0x8(%ebp),%eax
  102c92:	89 02                	mov    %eax,(%edx)
  102c94:	eb 2e                	jmp    102cc4 <insert_ordered_array+0xed>
  102c96:	ff 45 f4             	incl   -0xc(%ebp)
  102c99:	8b 45 0c             	mov    0xc(%ebp),%eax
  102c9c:	8b 10                	mov    (%eax),%edx
  102c9e:	8b 45 f4             	mov    -0xc(%ebp),%eax
  102ca1:	c1 e0 02             	shl    $0x2,%eax
  102ca4:	8d 04 02             	lea    (%edx,%eax,1),%eax
  102ca7:	8b 00                	mov    (%eax),%eax
  102ca9:	89 45 fc             	mov    %eax,-0x4(%ebp)
  102cac:	8b 45 0c             	mov    0xc(%ebp),%eax
  102caf:	8b 10                	mov    (%eax),%edx
  102cb1:	8b 45 f4             	mov    -0xc(%ebp),%eax
  102cb4:	c1 e0 02             	shl    $0x2,%eax
  102cb7:	01 c2                	add    %eax,%edx
  102cb9:	8b 45 f8             	mov    -0x8(%ebp),%eax
  102cbc:	89 02                	mov    %eax,(%edx)
  102cbe:	8b 45 fc             	mov    -0x4(%ebp),%eax
  102cc1:	89 45 f8             	mov    %eax,-0x8(%ebp)
  102cc4:	8b 45 0c             	mov    0xc(%ebp),%eax
  102cc7:	8b 40 04             	mov    0x4(%eax),%eax
  102cca:	3b 45 f4             	cmp    -0xc(%ebp),%eax
  102ccd:	77 c7                	ja     102c96 <insert_ordered_array+0xbf>
  102ccf:	8b 45 0c             	mov    0xc(%ebp),%eax
  102cd2:	8b 40 04             	mov    0x4(%eax),%eax
  102cd5:	8d 50 01             	lea    0x1(%eax),%edx
  102cd8:	8b 45 0c             	mov    0xc(%ebp),%eax
  102cdb:	89 50 04             	mov    %edx,0x4(%eax)
  102cde:	c9                   	leave  
  102cdf:	c3                   	ret    

00102ce0 <lookup_ordered_array>:
  102ce0:	55                   	push   %ebp
  102ce1:	89 e5                	mov    %esp,%ebp
  102ce3:	83 ec 18             	sub    $0x18,%esp
  102ce6:	8b 45 0c             	mov    0xc(%ebp),%eax
  102ce9:	8b 40 04             	mov    0x4(%eax),%eax
  102cec:	3b 45 08             	cmp    0x8(%ebp),%eax
  102cef:	77 1c                	ja     102d0d <lookup_ordered_array+0x2d>
  102cf1:	c7 44 24 08 2c 42 10 	movl   $0x10422c,0x8(%esp)
  102cf8:	00 
  102cf9:	c7 44 24 04 40 00 00 	movl   $0x40,0x4(%esp)
  102d00:	00 
  102d01:	c7 04 24 1c 42 10 00 	movl   $0x10421c,(%esp)
  102d08:	e8 5b da ff ff       	call   100768 <panic_assert>
  102d0d:	8b 45 0c             	mov    0xc(%ebp),%eax
  102d10:	8b 10                	mov    (%eax),%edx
  102d12:	8b 45 08             	mov    0x8(%ebp),%eax
  102d15:	c1 e0 02             	shl    $0x2,%eax
  102d18:	8d 04 02             	lea    (%edx,%eax,1),%eax
  102d1b:	8b 00                	mov    (%eax),%eax
  102d1d:	c9                   	leave  
  102d1e:	c3                   	ret    

00102d1f <remove_ordered_array>:
  102d1f:	55                   	push   %ebp
  102d20:	89 e5                	mov    %esp,%ebp
  102d22:	eb 26                	jmp    102d4a <remove_ordered_array+0x2b>
  102d24:	8b 45 0c             	mov    0xc(%ebp),%eax
  102d27:	8b 10                	mov    (%eax),%edx
  102d29:	8b 45 08             	mov    0x8(%ebp),%eax
  102d2c:	c1 e0 02             	shl    $0x2,%eax
  102d2f:	8d 0c 02             	lea    (%edx,%eax,1),%ecx
  102d32:	8b 45 0c             	mov    0xc(%ebp),%eax
  102d35:	8b 10                	mov    (%eax),%edx
  102d37:	8b 45 08             	mov    0x8(%ebp),%eax
  102d3a:	c1 e0 02             	shl    $0x2,%eax
  102d3d:	8d 04 02             	lea    (%edx,%eax,1),%eax
  102d40:	83 c0 04             	add    $0x4,%eax
  102d43:	8b 00                	mov    (%eax),%eax
  102d45:	89 01                	mov    %eax,(%ecx)
  102d47:	ff 45 08             	incl   0x8(%ebp)
  102d4a:	8b 45 0c             	mov    0xc(%ebp),%eax
  102d4d:	8b 40 04             	mov    0x4(%eax),%eax
  102d50:	3b 45 08             	cmp    0x8(%ebp),%eax
  102d53:	77 cf                	ja     102d24 <remove_ordered_array+0x5>
  102d55:	8b 45 0c             	mov    0xc(%ebp),%eax
  102d58:	8b 40 04             	mov    0x4(%eax),%eax
  102d5b:	8d 50 ff             	lea    -0x1(%eax),%edx
  102d5e:	8b 45 0c             	mov    0xc(%ebp),%eax
  102d61:	89 50 04             	mov    %edx,0x4(%eax)
  102d64:	5d                   	pop    %ebp
  102d65:	c3                   	ret    
	...

00102d68 <read_fs>:
  102d68:	55                   	push   %ebp
  102d69:	89 e5                	mov    %esp,%ebp
  102d6b:	83 ec 18             	sub    $0x18,%esp
  102d6e:	8b 45 08             	mov    0x8(%ebp),%eax
  102d71:	8b 80 9c 00 00 00    	mov    0x9c(%eax),%eax
  102d77:	85 c0                	test   %eax,%eax
  102d79:	74 2b                	je     102da6 <read_fs+0x3e>
  102d7b:	8b 45 08             	mov    0x8(%ebp),%eax
  102d7e:	8b 90 9c 00 00 00    	mov    0x9c(%eax),%edx
  102d84:	8b 45 14             	mov    0x14(%ebp),%eax
  102d87:	89 44 24 0c          	mov    %eax,0xc(%esp)
  102d8b:	8b 45 10             	mov    0x10(%ebp),%eax
  102d8e:	89 44 24 08          	mov    %eax,0x8(%esp)
  102d92:	8b 45 0c             	mov    0xc(%ebp),%eax
  102d95:	89 44 24 04          	mov    %eax,0x4(%esp)
  102d99:	8b 45 08             	mov    0x8(%ebp),%eax
  102d9c:	89 04 24             	mov    %eax,(%esp)
  102d9f:	ff d2                	call   *%edx
  102da1:	89 45 fc             	mov    %eax,-0x4(%ebp)
  102da4:	eb 07                	jmp    102dad <read_fs+0x45>
  102da6:	c7 45 fc 00 00 00 00 	movl   $0x0,-0x4(%ebp)
  102dad:	8b 45 fc             	mov    -0x4(%ebp),%eax
  102db0:	c9                   	leave  
  102db1:	c3                   	ret    

00102db2 <write_fs>:
  102db2:	55                   	push   %ebp
  102db3:	89 e5                	mov    %esp,%ebp
  102db5:	83 ec 18             	sub    $0x18,%esp
  102db8:	8b 45 08             	mov    0x8(%ebp),%eax
  102dbb:	8b 80 a0 00 00 00    	mov    0xa0(%eax),%eax
  102dc1:	85 c0                	test   %eax,%eax
  102dc3:	74 2b                	je     102df0 <write_fs+0x3e>
  102dc5:	8b 45 08             	mov    0x8(%ebp),%eax
  102dc8:	8b 90 a0 00 00 00    	mov    0xa0(%eax),%edx
  102dce:	8b 45 14             	mov    0x14(%ebp),%eax
  102dd1:	89 44 24 0c          	mov    %eax,0xc(%esp)
  102dd5:	8b 45 10             	mov    0x10(%ebp),%eax
  102dd8:	89 44 24 08          	mov    %eax,0x8(%esp)
  102ddc:	8b 45 0c             	mov    0xc(%ebp),%eax
  102ddf:	89 44 24 04          	mov    %eax,0x4(%esp)
  102de3:	8b 45 08             	mov    0x8(%ebp),%eax
  102de6:	89 04 24             	mov    %eax,(%esp)
  102de9:	ff d2                	call   *%edx
  102deb:	89 45 fc             	mov    %eax,-0x4(%ebp)
  102dee:	eb 07                	jmp    102df7 <write_fs+0x45>
  102df0:	c7 45 fc 00 00 00 00 	movl   $0x0,-0x4(%ebp)
  102df7:	8b 45 fc             	mov    -0x4(%ebp),%eax
  102dfa:	c9                   	leave  
  102dfb:	c3                   	ret    

00102dfc <open_fs>:
  102dfc:	55                   	push   %ebp
  102dfd:	89 e5                	mov    %esp,%ebp
  102dff:	83 ec 18             	sub    $0x18,%esp
  102e02:	8b 45 0c             	mov    0xc(%ebp),%eax
  102e05:	8b 55 10             	mov    0x10(%ebp),%edx
  102e08:	88 45 fc             	mov    %al,-0x4(%ebp)
  102e0b:	88 55 f8             	mov    %dl,-0x8(%ebp)
  102e0e:	8b 45 08             	mov    0x8(%ebp),%eax
  102e11:	8b 80 a4 00 00 00    	mov    0xa4(%eax),%eax
  102e17:	85 c0                	test   %eax,%eax
  102e19:	74 11                	je     102e2c <open_fs+0x30>
  102e1b:	8b 45 08             	mov    0x8(%ebp),%eax
  102e1e:	8b 90 a4 00 00 00    	mov    0xa4(%eax),%edx
  102e24:	8b 45 08             	mov    0x8(%ebp),%eax
  102e27:	89 04 24             	mov    %eax,(%esp)
  102e2a:	ff d2                	call   *%edx
  102e2c:	c9                   	leave  
  102e2d:	c3                   	ret    

00102e2e <close_fs>:
  102e2e:	55                   	push   %ebp
  102e2f:	89 e5                	mov    %esp,%ebp
  102e31:	83 ec 08             	sub    $0x8,%esp
  102e34:	8b 45 08             	mov    0x8(%ebp),%eax
  102e37:	8b 80 a8 00 00 00    	mov    0xa8(%eax),%eax
  102e3d:	85 c0                	test   %eax,%eax
  102e3f:	74 11                	je     102e52 <close_fs+0x24>
  102e41:	8b 45 08             	mov    0x8(%ebp),%eax
  102e44:	8b 90 a8 00 00 00    	mov    0xa8(%eax),%edx
  102e4a:	8b 45 08             	mov    0x8(%ebp),%eax
  102e4d:	89 04 24             	mov    %eax,(%esp)
  102e50:	ff d2                	call   *%edx
  102e52:	c9                   	leave  
  102e53:	c3                   	ret    

00102e54 <readdir_fs>:
  102e54:	55                   	push   %ebp
  102e55:	89 e5                	mov    %esp,%ebp
  102e57:	83 ec 18             	sub    $0x18,%esp
  102e5a:	8b 45 08             	mov    0x8(%ebp),%eax
  102e5d:	8b 80 8c 00 00 00    	mov    0x8c(%eax),%eax
  102e63:	83 e0 07             	and    $0x7,%eax
  102e66:	83 f8 02             	cmp    $0x2,%eax
  102e69:	75 2a                	jne    102e95 <readdir_fs+0x41>
  102e6b:	8b 45 08             	mov    0x8(%ebp),%eax
  102e6e:	8b 80 ac 00 00 00    	mov    0xac(%eax),%eax
  102e74:	85 c0                	test   %eax,%eax
  102e76:	74 1d                	je     102e95 <readdir_fs+0x41>
  102e78:	8b 45 08             	mov    0x8(%ebp),%eax
  102e7b:	8b 90 ac 00 00 00    	mov    0xac(%eax),%edx
  102e81:	8b 45 0c             	mov    0xc(%ebp),%eax
  102e84:	89 44 24 04          	mov    %eax,0x4(%esp)
  102e88:	8b 45 08             	mov    0x8(%ebp),%eax
  102e8b:	89 04 24             	mov    %eax,(%esp)
  102e8e:	ff d2                	call   *%edx
  102e90:	89 45 fc             	mov    %eax,-0x4(%ebp)
  102e93:	eb 07                	jmp    102e9c <readdir_fs+0x48>
  102e95:	c7 45 fc 00 00 00 00 	movl   $0x0,-0x4(%ebp)
  102e9c:	8b 45 fc             	mov    -0x4(%ebp),%eax
  102e9f:	c9                   	leave  
  102ea0:	c3                   	ret    

00102ea1 <finddir_fs>:
  102ea1:	55                   	push   %ebp
  102ea2:	89 e5                	mov    %esp,%ebp
  102ea4:	83 ec 18             	sub    $0x18,%esp
  102ea7:	8b 45 08             	mov    0x8(%ebp),%eax
  102eaa:	8b 80 8c 00 00 00    	mov    0x8c(%eax),%eax
  102eb0:	83 e0 07             	and    $0x7,%eax
  102eb3:	83 f8 02             	cmp    $0x2,%eax
  102eb6:	75 2a                	jne    102ee2 <finddir_fs+0x41>
  102eb8:	8b 45 08             	mov    0x8(%ebp),%eax
  102ebb:	8b 80 b0 00 00 00    	mov    0xb0(%eax),%eax
  102ec1:	85 c0                	test   %eax,%eax
  102ec3:	74 1d                	je     102ee2 <finddir_fs+0x41>
  102ec5:	8b 45 08             	mov    0x8(%ebp),%eax
  102ec8:	8b 90 b0 00 00 00    	mov    0xb0(%eax),%edx
  102ece:	8b 45 0c             	mov    0xc(%ebp),%eax
  102ed1:	89 44 24 04          	mov    %eax,0x4(%esp)
  102ed5:	8b 45 08             	mov    0x8(%ebp),%eax
  102ed8:	89 04 24             	mov    %eax,(%esp)
  102edb:	ff d2                	call   *%edx
  102edd:	89 45 fc             	mov    %eax,-0x4(%ebp)
  102ee0:	eb 07                	jmp    102ee9 <finddir_fs+0x48>
  102ee2:	c7 45 fc 00 00 00 00 	movl   $0x0,-0x4(%ebp)
  102ee9:	8b 45 fc             	mov    -0x4(%ebp),%eax
  102eec:	c9                   	leave  
  102eed:	c3                   	ret    
	...

00102ef0 <initrd_read>:
  102ef0:	55                   	push   %ebp
  102ef1:	89 e5                	mov    %esp,%ebp
  102ef3:	83 ec 68             	sub    $0x68,%esp
  102ef6:	8b 45 08             	mov    0x8(%ebp),%eax
  102ef9:	8b 90 90 00 00 00    	mov    0x90(%eax),%edx
  102eff:	89 d0                	mov    %edx,%eax
  102f01:	c1 e0 03             	shl    $0x3,%eax
  102f04:	01 d0                	add    %edx,%eax
  102f06:	01 c0                	add    %eax,%eax
  102f08:	01 d0                	add    %edx,%eax
  102f0a:	c1 e0 02             	shl    $0x2,%eax
  102f0d:	89 c2                	mov    %eax,%edx
  102f0f:	a1 e4 6d 10 00       	mov    0x106de4,%eax
  102f14:	8d 04 02             	lea    (%edx,%eax,1),%eax
  102f17:	8d 4d b4             	lea    -0x4c(%ebp),%ecx
  102f1a:	89 c2                	mov    %eax,%edx
  102f1c:	b8 4c 00 00 00       	mov    $0x4c,%eax
  102f21:	89 44 24 08          	mov    %eax,0x8(%esp)
  102f25:	89 54 24 04          	mov    %edx,0x4(%esp)
  102f29:	89 0c 24             	mov    %ecx,(%esp)
  102f2c:	e8 6a d6 ff ff       	call   10059b <memcpy>
  102f31:	8b 45 fc             	mov    -0x4(%ebp),%eax
  102f34:	3b 45 0c             	cmp    0xc(%ebp),%eax
  102f37:	73 09                	jae    102f42 <initrd_read+0x52>
  102f39:	c7 45 ac 00 00 00 00 	movl   $0x0,-0x54(%ebp)
  102f40:	eb 3c                	jmp    102f7e <initrd_read+0x8e>
  102f42:	8b 45 10             	mov    0x10(%ebp),%eax
  102f45:	8b 55 0c             	mov    0xc(%ebp),%edx
  102f48:	01 c2                	add    %eax,%edx
  102f4a:	8b 45 fc             	mov    -0x4(%ebp),%eax
  102f4d:	39 c2                	cmp    %eax,%edx
  102f4f:	76 09                	jbe    102f5a <initrd_read+0x6a>
  102f51:	8b 45 fc             	mov    -0x4(%ebp),%eax
  102f54:	2b 45 0c             	sub    0xc(%ebp),%eax
  102f57:	89 45 10             	mov    %eax,0x10(%ebp)
  102f5a:	8b 45 f8             	mov    -0x8(%ebp),%eax
  102f5d:	03 45 0c             	add    0xc(%ebp),%eax
  102f60:	89 c2                	mov    %eax,%edx
  102f62:	8b 45 10             	mov    0x10(%ebp),%eax
  102f65:	89 44 24 08          	mov    %eax,0x8(%esp)
  102f69:	89 54 24 04          	mov    %edx,0x4(%esp)
  102f6d:	8b 45 14             	mov    0x14(%ebp),%eax
  102f70:	89 04 24             	mov    %eax,(%esp)
  102f73:	e8 23 d6 ff ff       	call   10059b <memcpy>
  102f78:	8b 45 10             	mov    0x10(%ebp),%eax
  102f7b:	89 45 ac             	mov    %eax,-0x54(%ebp)
  102f7e:	8b 45 ac             	mov    -0x54(%ebp),%eax
  102f81:	c9                   	leave  
  102f82:	c3                   	ret    

00102f83 <initrd_readdir>:
  102f83:	55                   	push   %ebp
  102f84:	89 e5                	mov    %esp,%ebp
  102f86:	83 ec 18             	sub    $0x18,%esp
  102f89:	a1 e8 6d 10 00       	mov    0x106de8,%eax
  102f8e:	39 45 08             	cmp    %eax,0x8(%ebp)
  102f91:	75 37                	jne    102fca <initrd_readdir+0x47>
  102f93:	83 7d 0c 00          	cmpl   $0x0,0xc(%ebp)
  102f97:	75 31                	jne    102fca <initrd_readdir+0x47>
  102f99:	c7 44 24 04 3c 42 10 	movl   $0x10423c,0x4(%esp)
  102fa0:	00 
  102fa1:	c7 04 24 60 6d 10 00 	movl   $0x106d60,(%esp)
  102fa8:	e8 db d6 ff ff       	call   100688 <strcpy>
  102fad:	c6 05 63 6d 10 00 00 	movb   $0x0,0x106d63
  102fb4:	c7 05 e0 6d 10 00 00 	movl   $0x0,0x106de0
  102fbb:	00 00 00 
  102fbe:	c7 45 fc 60 6d 10 00 	movl   $0x106d60,-0x4(%ebp)
  102fc5:	e9 90 00 00 00       	jmp    10305a <initrd_readdir+0xd7>
  102fca:	8b 45 0c             	mov    0xc(%ebp),%eax
  102fcd:	48                   	dec    %eax
  102fce:	8b 15 40 6d 10 00    	mov    0x106d40,%edx
  102fd4:	39 d0                	cmp    %edx,%eax
  102fd6:	72 09                	jb     102fe1 <initrd_readdir+0x5e>
  102fd8:	c7 45 fc 00 00 00 00 	movl   $0x0,-0x4(%ebp)
  102fdf:	eb 79                	jmp    10305a <initrd_readdir+0xd7>
  102fe1:	8b 45 0c             	mov    0xc(%ebp),%eax
  102fe4:	69 c0 b8 00 00 00    	imul   $0xb8,%eax,%eax
  102fea:	89 c2                	mov    %eax,%edx
  102fec:	a1 ec 6d 10 00       	mov    0x106dec,%eax
  102ff1:	8d 04 02             	lea    (%edx,%eax,1),%eax
  102ff4:	2d b8 00 00 00       	sub    $0xb8,%eax
  102ff9:	89 44 24 04          	mov    %eax,0x4(%esp)
  102ffd:	c7 04 24 60 6d 10 00 	movl   $0x106d60,(%esp)
  103004:	e8 7f d6 ff ff       	call   100688 <strcpy>
  103009:	8b 45 0c             	mov    0xc(%ebp),%eax
  10300c:	69 c0 b8 00 00 00    	imul   $0xb8,%eax,%eax
  103012:	89 c2                	mov    %eax,%edx
  103014:	a1 ec 6d 10 00       	mov    0x106dec,%eax
  103019:	8d 04 02             	lea    (%edx,%eax,1),%eax
  10301c:	2d b8 00 00 00       	sub    $0xb8,%eax
  103021:	89 04 24             	mov    %eax,(%esp)
  103024:	e8 bc d6 ff ff       	call   1006e5 <strlen>
  103029:	c6 80 60 6d 10 00 00 	movb   $0x0,0x106d60(%eax)
  103030:	8b 45 0c             	mov    0xc(%ebp),%eax
  103033:	69 c0 b8 00 00 00    	imul   $0xb8,%eax,%eax
  103039:	89 c2                	mov    %eax,%edx
  10303b:	a1 ec 6d 10 00       	mov    0x106dec,%eax
  103040:	8d 04 02             	lea    (%edx,%eax,1),%eax
  103043:	2d b8 00 00 00       	sub    $0xb8,%eax
  103048:	8b 80 90 00 00 00    	mov    0x90(%eax),%eax
  10304e:	a3 e0 6d 10 00       	mov    %eax,0x106de0
  103053:	c7 45 fc 60 6d 10 00 	movl   $0x106d60,-0x4(%ebp)
  10305a:	8b 45 fc             	mov    -0x4(%ebp),%eax
  10305d:	c9                   	leave  
  10305e:	c3                   	ret    

0010305f <initrd_finddir>:
  10305f:	55                   	push   %ebp
  103060:	89 e5                	mov    %esp,%ebp
  103062:	83 ec 28             	sub    $0x28,%esp
  103065:	a1 e8 6d 10 00       	mov    0x106de8,%eax
  10306a:	39 45 08             	cmp    %eax,0x8(%ebp)
  10306d:	75 21                	jne    103090 <initrd_finddir+0x31>
  10306f:	c7 44 24 04 3c 42 10 	movl   $0x10423c,0x4(%esp)
  103076:	00 
  103077:	8b 45 0c             	mov    0xc(%ebp),%eax
  10307a:	89 04 24             	mov    %eax,(%esp)
  10307d:	e8 74 d5 ff ff       	call   1005f6 <strcmp>
  103082:	85 c0                	test   %eax,%eax
  103084:	75 0a                	jne    103090 <initrd_finddir+0x31>
  103086:	a1 44 6d 10 00       	mov    0x106d44,%eax
  10308b:	89 45 ec             	mov    %eax,-0x14(%ebp)
  10308e:	eb 5a                	jmp    1030ea <initrd_finddir+0x8b>
  103090:	c7 45 fc 00 00 00 00 	movl   $0x0,-0x4(%ebp)
  103097:	eb 40                	jmp    1030d9 <initrd_finddir+0x7a>
  103099:	8b 45 fc             	mov    -0x4(%ebp),%eax
  10309c:	69 c0 b8 00 00 00    	imul   $0xb8,%eax,%eax
  1030a2:	89 c2                	mov    %eax,%edx
  1030a4:	a1 ec 6d 10 00       	mov    0x106dec,%eax
  1030a9:	8d 04 02             	lea    (%edx,%eax,1),%eax
  1030ac:	89 44 24 04          	mov    %eax,0x4(%esp)
  1030b0:	8b 45 0c             	mov    0xc(%ebp),%eax
  1030b3:	89 04 24             	mov    %eax,(%esp)
  1030b6:	e8 3b d5 ff ff       	call   1005f6 <strcmp>
  1030bb:	85 c0                	test   %eax,%eax
  1030bd:	75 17                	jne    1030d6 <initrd_finddir+0x77>
  1030bf:	8b 45 fc             	mov    -0x4(%ebp),%eax
  1030c2:	69 c0 b8 00 00 00    	imul   $0xb8,%eax,%eax
  1030c8:	89 c2                	mov    %eax,%edx
  1030ca:	a1 ec 6d 10 00       	mov    0x106dec,%eax
  1030cf:	01 c2                	add    %eax,%edx
  1030d1:	89 55 ec             	mov    %edx,-0x14(%ebp)
  1030d4:	eb 14                	jmp    1030ea <initrd_finddir+0x8b>
  1030d6:	ff 45 fc             	incl   -0x4(%ebp)
  1030d9:	a1 40 6d 10 00       	mov    0x106d40,%eax
  1030de:	39 45 fc             	cmp    %eax,-0x4(%ebp)
  1030e1:	7c b6                	jl     103099 <initrd_finddir+0x3a>
  1030e3:	c7 45 ec 00 00 00 00 	movl   $0x0,-0x14(%ebp)
  1030ea:	8b 45 ec             	mov    -0x14(%ebp),%eax
  1030ed:	c9                   	leave  
  1030ee:	c3                   	ret    

001030ef <initialise_initrd>:
  1030ef:	55                   	push   %ebp
  1030f0:	89 e5                	mov    %esp,%ebp
  1030f2:	56                   	push   %esi
  1030f3:	53                   	push   %ebx
  1030f4:	83 ec 20             	sub    $0x20,%esp
  1030f7:	8b 45 08             	mov    0x8(%ebp),%eax
  1030fa:	a3 f0 6d 10 00       	mov    %eax,0x106df0
  1030ff:	8b 45 08             	mov    0x8(%ebp),%eax
  103102:	83 c0 04             	add    $0x4,%eax
  103105:	a3 e4 6d 10 00       	mov    %eax,0x106de4
  10310a:	c7 04 24 b8 00 00 00 	movl   $0xb8,(%esp)
  103111:	e8 8b e7 ff ff       	call   1018a1 <kmalloc>
  103116:	a3 e8 6d 10 00       	mov    %eax,0x106de8
  10311b:	a1 e8 6d 10 00       	mov    0x106de8,%eax
  103120:	c7 44 24 04 40 42 10 	movl   $0x104240,0x4(%esp)
  103127:	00 
  103128:	89 04 24             	mov    %eax,(%esp)
  10312b:	e8 58 d5 ff ff       	call   100688 <strcpy>
  103130:	8b 35 e8 6d 10 00    	mov    0x106de8,%esi
  103136:	8b 0d e8 6d 10 00    	mov    0x106de8,%ecx
  10313c:	8b 1d e8 6d 10 00    	mov    0x106de8,%ebx
  103142:	8b 15 e8 6d 10 00    	mov    0x106de8,%edx
  103148:	a1 e8 6d 10 00       	mov    0x106de8,%eax
  10314d:	c7 80 94 00 00 00 00 	movl   $0x0,0x94(%eax)
  103154:	00 00 00 
  103157:	8b 80 94 00 00 00    	mov    0x94(%eax),%eax
  10315d:	89 82 90 00 00 00    	mov    %eax,0x90(%edx)
  103163:	8b 82 90 00 00 00    	mov    0x90(%edx),%eax
  103169:	89 83 88 00 00 00    	mov    %eax,0x88(%ebx)
  10316f:	8b 83 88 00 00 00    	mov    0x88(%ebx),%eax
  103175:	89 81 84 00 00 00    	mov    %eax,0x84(%ecx)
  10317b:	8b 81 84 00 00 00    	mov    0x84(%ecx),%eax
  103181:	89 86 80 00 00 00    	mov    %eax,0x80(%esi)
  103187:	a1 e8 6d 10 00       	mov    0x106de8,%eax
  10318c:	c7 80 8c 00 00 00 02 	movl   $0x2,0x8c(%eax)
  103193:	00 00 00 
  103196:	a1 e8 6d 10 00       	mov    0x106de8,%eax
  10319b:	c7 80 9c 00 00 00 00 	movl   $0x0,0x9c(%eax)
  1031a2:	00 00 00 
  1031a5:	a1 e8 6d 10 00       	mov    0x106de8,%eax
  1031aa:	c7 80 a0 00 00 00 00 	movl   $0x0,0xa0(%eax)
  1031b1:	00 00 00 
  1031b4:	a1 e8 6d 10 00       	mov    0x106de8,%eax
  1031b9:	c7 80 a4 00 00 00 00 	movl   $0x0,0xa4(%eax)
  1031c0:	00 00 00 
  1031c3:	a1 e8 6d 10 00       	mov    0x106de8,%eax
  1031c8:	c7 80 a8 00 00 00 00 	movl   $0x0,0xa8(%eax)
  1031cf:	00 00 00 
  1031d2:	a1 e8 6d 10 00       	mov    0x106de8,%eax
  1031d7:	c7 80 ac 00 00 00 83 	movl   $0x102f83,0xac(%eax)
  1031de:	2f 10 00 
  1031e1:	a1 e8 6d 10 00       	mov    0x106de8,%eax
  1031e6:	c7 80 b0 00 00 00 5f 	movl   $0x10305f,0xb0(%eax)
  1031ed:	30 10 00 
  1031f0:	a1 e8 6d 10 00       	mov    0x106de8,%eax
  1031f5:	c7 80 b4 00 00 00 00 	movl   $0x0,0xb4(%eax)
  1031fc:	00 00 00 
  1031ff:	a1 e8 6d 10 00       	mov    0x106de8,%eax
  103204:	c7 80 98 00 00 00 00 	movl   $0x0,0x98(%eax)
  10320b:	00 00 00 
  10320e:	c7 04 24 b8 00 00 00 	movl   $0xb8,(%esp)
  103215:	e8 87 e6 ff ff       	call   1018a1 <kmalloc>
  10321a:	a3 44 6d 10 00       	mov    %eax,0x106d44
  10321f:	a1 44 6d 10 00       	mov    0x106d44,%eax
  103224:	c7 44 24 04 3c 42 10 	movl   $0x10423c,0x4(%esp)
  10322b:	00 
  10322c:	89 04 24             	mov    %eax,(%esp)
  10322f:	e8 54 d4 ff ff       	call   100688 <strcpy>
  103234:	8b 35 44 6d 10 00    	mov    0x106d44,%esi
  10323a:	8b 0d 44 6d 10 00    	mov    0x106d44,%ecx
  103240:	8b 1d 44 6d 10 00    	mov    0x106d44,%ebx
  103246:	8b 15 44 6d 10 00    	mov    0x106d44,%edx
  10324c:	a1 44 6d 10 00       	mov    0x106d44,%eax
  103251:	c7 80 94 00 00 00 00 	movl   $0x0,0x94(%eax)
  103258:	00 00 00 
  10325b:	8b 80 94 00 00 00    	mov    0x94(%eax),%eax
  103261:	89 82 90 00 00 00    	mov    %eax,0x90(%edx)
  103267:	8b 82 90 00 00 00    	mov    0x90(%edx),%eax
  10326d:	89 83 88 00 00 00    	mov    %eax,0x88(%ebx)
  103273:	8b 83 88 00 00 00    	mov    0x88(%ebx),%eax
  103279:	89 81 84 00 00 00    	mov    %eax,0x84(%ecx)
  10327f:	8b 81 84 00 00 00    	mov    0x84(%ecx),%eax
  103285:	89 86 80 00 00 00    	mov    %eax,0x80(%esi)
  10328b:	a1 44 6d 10 00       	mov    0x106d44,%eax
  103290:	c7 80 8c 00 00 00 02 	movl   $0x2,0x8c(%eax)
  103297:	00 00 00 
  10329a:	a1 44 6d 10 00       	mov    0x106d44,%eax
  10329f:	c7 80 9c 00 00 00 00 	movl   $0x0,0x9c(%eax)
  1032a6:	00 00 00 
  1032a9:	a1 44 6d 10 00       	mov    0x106d44,%eax
  1032ae:	c7 80 a0 00 00 00 00 	movl   $0x0,0xa0(%eax)
  1032b5:	00 00 00 
  1032b8:	a1 44 6d 10 00       	mov    0x106d44,%eax
  1032bd:	c7 80 a4 00 00 00 00 	movl   $0x0,0xa4(%eax)
  1032c4:	00 00 00 
  1032c7:	a1 44 6d 10 00       	mov    0x106d44,%eax
  1032cc:	c7 80 a8 00 00 00 00 	movl   $0x0,0xa8(%eax)
  1032d3:	00 00 00 
  1032d6:	a1 44 6d 10 00       	mov    0x106d44,%eax
  1032db:	c7 80 ac 00 00 00 83 	movl   $0x102f83,0xac(%eax)
  1032e2:	2f 10 00 
  1032e5:	a1 44 6d 10 00       	mov    0x106d44,%eax
  1032ea:	c7 80 b0 00 00 00 5f 	movl   $0x10305f,0xb0(%eax)
  1032f1:	30 10 00 
  1032f4:	a1 44 6d 10 00       	mov    0x106d44,%eax
  1032f9:	c7 80 b4 00 00 00 00 	movl   $0x0,0xb4(%eax)
  103300:	00 00 00 
  103303:	a1 44 6d 10 00       	mov    0x106d44,%eax
  103308:	c7 80 98 00 00 00 00 	movl   $0x0,0x98(%eax)
  10330f:	00 00 00 
  103312:	a1 f0 6d 10 00       	mov    0x106df0,%eax
  103317:	8b 00                	mov    (%eax),%eax
  103319:	69 c0 b8 00 00 00    	imul   $0xb8,%eax,%eax
  10331f:	89 04 24             	mov    %eax,(%esp)
  103322:	e8 7a e5 ff ff       	call   1018a1 <kmalloc>
  103327:	a3 ec 6d 10 00       	mov    %eax,0x106dec
  10332c:	a1 f0 6d 10 00       	mov    0x106df0,%eax
  103331:	8b 00                	mov    (%eax),%eax
  103333:	a3 40 6d 10 00       	mov    %eax,0x106d40
  103338:	c7 45 f4 00 00 00 00 	movl   $0x0,-0xc(%ebp)
  10333f:	e9 14 02 00 00       	jmp    103558 <initialise_initrd+0x469>
  103344:	8b 55 f4             	mov    -0xc(%ebp),%edx
  103347:	89 d0                	mov    %edx,%eax
  103349:	c1 e0 03             	shl    $0x3,%eax
  10334c:	01 d0                	add    %edx,%eax
  10334e:	01 c0                	add    %eax,%eax
  103350:	01 d0                	add    %edx,%eax
  103352:	c1 e0 02             	shl    $0x2,%eax
  103355:	89 c2                	mov    %eax,%edx
  103357:	a1 e4 6d 10 00       	mov    0x106de4,%eax
  10335c:	8d 0c 02             	lea    (%edx,%eax,1),%ecx
  10335f:	8b 55 f4             	mov    -0xc(%ebp),%edx
  103362:	89 d0                	mov    %edx,%eax
  103364:	c1 e0 03             	shl    $0x3,%eax
  103367:	01 d0                	add    %edx,%eax
  103369:	01 c0                	add    %eax,%eax
  10336b:	01 d0                	add    %edx,%eax
  10336d:	c1 e0 02             	shl    $0x2,%eax
  103370:	89 c2                	mov    %eax,%edx
  103372:	a1 e4 6d 10 00       	mov    0x106de4,%eax
  103377:	8d 04 02             	lea    (%edx,%eax,1),%eax
  10337a:	8b 40 44             	mov    0x44(%eax),%eax
  10337d:	03 45 08             	add    0x8(%ebp),%eax
  103380:	89 41 44             	mov    %eax,0x44(%ecx)
  103383:	8b 55 f4             	mov    -0xc(%ebp),%edx
  103386:	89 d0                	mov    %edx,%eax
  103388:	c1 e0 03             	shl    $0x3,%eax
  10338b:	01 d0                	add    %edx,%eax
  10338d:	01 c0                	add    %eax,%eax
  10338f:	01 d0                	add    %edx,%eax
  103391:	c1 e0 02             	shl    $0x2,%eax
  103394:	89 c2                	mov    %eax,%edx
  103396:	a1 e4 6d 10 00       	mov    0x106de4,%eax
  10339b:	8d 04 02             	lea    (%edx,%eax,1),%eax
  10339e:	8d 48 01             	lea    0x1(%eax),%ecx
  1033a1:	8b 45 f4             	mov    -0xc(%ebp),%eax
  1033a4:	69 c0 b8 00 00 00    	imul   $0xb8,%eax,%eax
  1033aa:	89 c2                	mov    %eax,%edx
  1033ac:	a1 ec 6d 10 00       	mov    0x106dec,%eax
  1033b1:	8d 04 02             	lea    (%edx,%eax,1),%eax
  1033b4:	89 4c 24 04          	mov    %ecx,0x4(%esp)
  1033b8:	89 04 24             	mov    %eax,(%esp)
  1033bb:	e8 c8 d2 ff ff       	call   100688 <strcpy>
  1033c0:	8b 45 f4             	mov    -0xc(%ebp),%eax
  1033c3:	69 c0 b8 00 00 00    	imul   $0xb8,%eax,%eax
  1033c9:	89 c2                	mov    %eax,%edx
  1033cb:	a1 ec 6d 10 00       	mov    0x106dec,%eax
  1033d0:	8d 1c 02             	lea    (%edx,%eax,1),%ebx
  1033d3:	8b 45 f4             	mov    -0xc(%ebp),%eax
  1033d6:	69 c0 b8 00 00 00    	imul   $0xb8,%eax,%eax
  1033dc:	89 c2                	mov    %eax,%edx
  1033de:	a1 ec 6d 10 00       	mov    0x106dec,%eax
  1033e3:	8d 0c 02             	lea    (%edx,%eax,1),%ecx
  1033e6:	8b 45 f4             	mov    -0xc(%ebp),%eax
  1033e9:	69 c0 b8 00 00 00    	imul   $0xb8,%eax,%eax
  1033ef:	89 c2                	mov    %eax,%edx
  1033f1:	a1 ec 6d 10 00       	mov    0x106dec,%eax
  1033f6:	8d 04 02             	lea    (%edx,%eax,1),%eax
  1033f9:	c7 80 88 00 00 00 00 	movl   $0x0,0x88(%eax)
  103400:	00 00 00 
  103403:	8b 80 88 00 00 00    	mov    0x88(%eax),%eax
  103409:	89 81 84 00 00 00    	mov    %eax,0x84(%ecx)
  10340f:	8b 81 84 00 00 00    	mov    0x84(%ecx),%eax
  103415:	89 83 80 00 00 00    	mov    %eax,0x80(%ebx)
  10341b:	8b 45 f4             	mov    -0xc(%ebp),%eax
  10341e:	69 c0 b8 00 00 00    	imul   $0xb8,%eax,%eax
  103424:	89 c2                	mov    %eax,%edx
  103426:	a1 ec 6d 10 00       	mov    0x106dec,%eax
  10342b:	8d 0c 02             	lea    (%edx,%eax,1),%ecx
  10342e:	8b 55 f4             	mov    -0xc(%ebp),%edx
  103431:	89 d0                	mov    %edx,%eax
  103433:	c1 e0 03             	shl    $0x3,%eax
  103436:	01 d0                	add    %edx,%eax
  103438:	01 c0                	add    %eax,%eax
  10343a:	01 d0                	add    %edx,%eax
  10343c:	c1 e0 02             	shl    $0x2,%eax
  10343f:	89 c2                	mov    %eax,%edx
  103441:	a1 e4 6d 10 00       	mov    0x106de4,%eax
  103446:	8d 04 02             	lea    (%edx,%eax,1),%eax
  103449:	8b 40 48             	mov    0x48(%eax),%eax
  10344c:	89 81 94 00 00 00    	mov    %eax,0x94(%ecx)
  103452:	8b 45 f4             	mov    -0xc(%ebp),%eax
  103455:	69 c0 b8 00 00 00    	imul   $0xb8,%eax,%eax
  10345b:	89 c2                	mov    %eax,%edx
  10345d:	a1 ec 6d 10 00       	mov    0x106dec,%eax
  103462:	01 c2                	add    %eax,%edx
  103464:	8b 45 f4             	mov    -0xc(%ebp),%eax
  103467:	89 82 90 00 00 00    	mov    %eax,0x90(%edx)
  10346d:	8b 45 f4             	mov    -0xc(%ebp),%eax
  103470:	69 c0 b8 00 00 00    	imul   $0xb8,%eax,%eax
  103476:	89 c2                	mov    %eax,%edx
  103478:	a1 ec 6d 10 00       	mov    0x106dec,%eax
  10347d:	8d 04 02             	lea    (%edx,%eax,1),%eax
  103480:	c7 80 8c 00 00 00 01 	movl   $0x1,0x8c(%eax)
  103487:	00 00 00 
  10348a:	8b 45 f4             	mov    -0xc(%ebp),%eax
  10348d:	69 c0 b8 00 00 00    	imul   $0xb8,%eax,%eax
  103493:	89 c2                	mov    %eax,%edx
  103495:	a1 ec 6d 10 00       	mov    0x106dec,%eax
  10349a:	8d 04 02             	lea    (%edx,%eax,1),%eax
  10349d:	c7 80 9c 00 00 00 f0 	movl   $0x102ef0,0x9c(%eax)
  1034a4:	2e 10 00 
  1034a7:	8b 45 f4             	mov    -0xc(%ebp),%eax
  1034aa:	69 c0 b8 00 00 00    	imul   $0xb8,%eax,%eax
  1034b0:	89 c2                	mov    %eax,%edx
  1034b2:	a1 ec 6d 10 00       	mov    0x106dec,%eax
  1034b7:	8d 04 02             	lea    (%edx,%eax,1),%eax
  1034ba:	c7 80 a0 00 00 00 00 	movl   $0x0,0xa0(%eax)
  1034c1:	00 00 00 
  1034c4:	8b 45 f4             	mov    -0xc(%ebp),%eax
  1034c7:	69 c0 b8 00 00 00    	imul   $0xb8,%eax,%eax
  1034cd:	89 c2                	mov    %eax,%edx
  1034cf:	a1 ec 6d 10 00       	mov    0x106dec,%eax
  1034d4:	8d 04 02             	lea    (%edx,%eax,1),%eax
  1034d7:	c7 80 ac 00 00 00 00 	movl   $0x0,0xac(%eax)
  1034de:	00 00 00 
  1034e1:	8b 45 f4             	mov    -0xc(%ebp),%eax
  1034e4:	69 c0 b8 00 00 00    	imul   $0xb8,%eax,%eax
  1034ea:	89 c2                	mov    %eax,%edx
  1034ec:	a1 ec 6d 10 00       	mov    0x106dec,%eax
  1034f1:	8d 04 02             	lea    (%edx,%eax,1),%eax
  1034f4:	c7 80 b0 00 00 00 00 	movl   $0x0,0xb0(%eax)
  1034fb:	00 00 00 
  1034fe:	8b 45 f4             	mov    -0xc(%ebp),%eax
  103501:	69 c0 b8 00 00 00    	imul   $0xb8,%eax,%eax
  103507:	89 c2                	mov    %eax,%edx
  103509:	a1 ec 6d 10 00       	mov    0x106dec,%eax
  10350e:	8d 04 02             	lea    (%edx,%eax,1),%eax
  103511:	c7 80 a4 00 00 00 00 	movl   $0x0,0xa4(%eax)
  103518:	00 00 00 
  10351b:	8b 45 f4             	mov    -0xc(%ebp),%eax
  10351e:	69 c0 b8 00 00 00    	imul   $0xb8,%eax,%eax
  103524:	89 c2                	mov    %eax,%edx
  103526:	a1 ec 6d 10 00       	mov    0x106dec,%eax
  10352b:	8d 04 02             	lea    (%edx,%eax,1),%eax
  10352e:	c7 80 a8 00 00 00 00 	movl   $0x0,0xa8(%eax)
  103535:	00 00 00 
  103538:	8b 45 f4             	mov    -0xc(%ebp),%eax
  10353b:	69 c0 b8 00 00 00    	imul   $0xb8,%eax,%eax
  103541:	89 c2                	mov    %eax,%edx
  103543:	a1 ec 6d 10 00       	mov    0x106dec,%eax
  103548:	8d 04 02             	lea    (%edx,%eax,1),%eax
  10354b:	c7 80 98 00 00 00 00 	movl   $0x0,0x98(%eax)
  103552:	00 00 00 
  103555:	ff 45 f4             	incl   -0xc(%ebp)
  103558:	8b 45 f4             	mov    -0xc(%ebp),%eax
  10355b:	8b 15 f0 6d 10 00    	mov    0x106df0,%edx
  103561:	8b 12                	mov    (%edx),%edx
  103563:	39 d0                	cmp    %edx,%eax
  103565:	0f 82 d9 fd ff ff    	jb     103344 <initialise_initrd+0x255>
  10356b:	a1 e8 6d 10 00       	mov    0x106de8,%eax
  103570:	83 c4 20             	add    $0x20,%esp
  103573:	5b                   	pop    %ebx
  103574:	5e                   	pop    %esi
  103575:	5d                   	pop    %ebp
  103576:	c3                   	ret    
	...

00103578 <initialise_tasking>:
  103578:	55                   	push   %ebp
  103579:	89 e5                	mov    %esp,%ebp
  10357b:	53                   	push   %ebx
  10357c:	83 ec 14             	sub    $0x14,%esp
  10357f:	fa                   	cli    
  103580:	c7 44 24 04 00 20 00 	movl   $0x2000,0x4(%esp)
  103587:	00 
  103588:	c7 04 24 00 00 00 e0 	movl   $0xe0000000,(%esp)
  10358f:	e8 8d 00 00 00       	call   103621 <move_stack>
  103594:	c7 04 24 1c 00 00 00 	movl   $0x1c,(%esp)
  10359b:	e8 01 e3 ff ff       	call   1018a1 <kmalloc>
  1035a0:	a3 f4 6d 10 00       	mov    %eax,0x106df4
  1035a5:	a1 f4 6d 10 00       	mov    0x106df4,%eax
  1035aa:	a3 f8 6d 10 00       	mov    %eax,0x106df8
  1035af:	8b 0d f8 6d 10 00    	mov    0x106df8,%ecx
  1035b5:	8b 15 08 40 10 00    	mov    0x104008,%edx
  1035bb:	89 d0                	mov    %edx,%eax
  1035bd:	89 01                	mov    %eax,(%ecx)
  1035bf:	8d 42 01             	lea    0x1(%edx),%eax
  1035c2:	a3 08 40 10 00       	mov    %eax,0x104008
  1035c7:	8b 15 f8 6d 10 00    	mov    0x106df8,%edx
  1035cd:	a1 f8 6d 10 00       	mov    0x106df8,%eax
  1035d2:	c7 40 08 00 00 00 00 	movl   $0x0,0x8(%eax)
  1035d9:	8b 40 08             	mov    0x8(%eax),%eax
  1035dc:	89 42 04             	mov    %eax,0x4(%edx)
  1035df:	a1 f8 6d 10 00       	mov    0x106df8,%eax
  1035e4:	c7 40 0c 00 00 00 00 	movl   $0x0,0xc(%eax)
  1035eb:	8b 15 f8 6d 10 00    	mov    0x106df8,%edx
  1035f1:	a1 10 50 10 00       	mov    0x105010,%eax
  1035f6:	89 42 10             	mov    %eax,0x10(%edx)
  1035f9:	a1 f8 6d 10 00       	mov    0x106df8,%eax
  1035fe:	c7 40 18 00 00 00 00 	movl   $0x0,0x18(%eax)
  103605:	8b 1d f8 6d 10 00    	mov    0x106df8,%ebx
  10360b:	c7 04 24 00 08 00 00 	movl   $0x800,(%esp)
  103612:	e8 23 e2 ff ff       	call   10183a <kmalloc_a>
  103617:	89 43 14             	mov    %eax,0x14(%ebx)
  10361a:	fb                   	sti    
  10361b:	83 c4 14             	add    $0x14,%esp
  10361e:	5b                   	pop    %ebx
  10361f:	5d                   	pop    %ebp
  103620:	c3                   	ret    

00103621 <move_stack>:
  103621:	55                   	push   %ebp
  103622:	89 e5                	mov    %esp,%ebp
  103624:	83 ec 48             	sub    $0x48,%esp
  103627:	8b 45 08             	mov    0x8(%ebp),%eax
  10362a:	89 45 dc             	mov    %eax,-0x24(%ebp)
  10362d:	eb 3b                	jmp    10366a <move_stack+0x49>
  10362f:	a1 10 50 10 00       	mov    0x105010,%eax
  103634:	89 44 24 08          	mov    %eax,0x8(%esp)
  103638:	c7 44 24 04 01 00 00 	movl   $0x1,0x4(%esp)
  10363f:	00 
  103640:	8b 45 dc             	mov    -0x24(%ebp),%eax
  103643:	89 04 24             	mov    %eax,(%esp)
  103646:	e8 7c f0 ff ff       	call   1026c7 <get_page>
  10364b:	c7 44 24 08 01 00 00 	movl   $0x1,0x8(%esp)
  103652:	00 
  103653:	c7 44 24 04 00 00 00 	movl   $0x0,0x4(%esp)
  10365a:	00 
  10365b:	89 04 24             	mov    %eax,(%esp)
  10365e:	e8 a3 ed ff ff       	call   102406 <alloc_frame>
  103663:	81 6d dc 00 10 00 00 	subl   $0x1000,-0x24(%ebp)
  10366a:	8b 45 08             	mov    0x8(%ebp),%eax
  10366d:	2b 45 0c             	sub    0xc(%ebp),%eax
  103670:	3b 45 dc             	cmp    -0x24(%ebp),%eax
  103673:	76 ba                	jbe    10362f <move_stack+0xe>
  103675:	0f 20 d8             	mov    %cr3,%eax
  103678:	89 45 e0             	mov    %eax,-0x20(%ebp)
  10367b:	8b 45 e0             	mov    -0x20(%ebp),%eax
  10367e:	0f 22 d8             	mov    %eax,%cr3
  103681:	89 e0                	mov    %esp,%eax
  103683:	89 45 e4             	mov    %eax,-0x1c(%ebp)
  103686:	89 e8                	mov    %ebp,%eax
  103688:	89 45 e8             	mov    %eax,-0x18(%ebp)
  10368b:	8b 45 08             	mov    0x8(%ebp),%eax
  10368e:	89 c2                	mov    %eax,%edx
  103690:	a1 00 60 10 00       	mov    0x106000,%eax
  103695:	89 d1                	mov    %edx,%ecx
  103697:	29 c1                	sub    %eax,%ecx
  103699:	89 c8                	mov    %ecx,%eax
  10369b:	89 45 ec             	mov    %eax,-0x14(%ebp)
  10369e:	8b 45 ec             	mov    -0x14(%ebp),%eax
  1036a1:	03 45 e4             	add    -0x1c(%ebp),%eax
  1036a4:	89 45 f0             	mov    %eax,-0x10(%ebp)
  1036a7:	8b 45 ec             	mov    -0x14(%ebp),%eax
  1036aa:	03 45 e8             	add    -0x18(%ebp),%eax
  1036ad:	89 45 f4             	mov    %eax,-0xc(%ebp)
  1036b0:	a1 00 60 10 00       	mov    0x106000,%eax
  1036b5:	2b 45 e4             	sub    -0x1c(%ebp),%eax
  1036b8:	8b 55 e4             	mov    -0x1c(%ebp),%edx
  1036bb:	8b 4d f0             	mov    -0x10(%ebp),%ecx
  1036be:	89 44 24 08          	mov    %eax,0x8(%esp)
  1036c2:	89 54 24 04          	mov    %edx,0x4(%esp)
  1036c6:	89 0c 24             	mov    %ecx,(%esp)
  1036c9:	e8 cd ce ff ff       	call   10059b <memcpy>
  1036ce:	8b 45 08             	mov    0x8(%ebp),%eax
  1036d1:	89 45 dc             	mov    %eax,-0x24(%ebp)
  1036d4:	eb 32                	jmp    103708 <move_stack+0xe7>
  1036d6:	8b 45 dc             	mov    -0x24(%ebp),%eax
  1036d9:	8b 00                	mov    (%eax),%eax
  1036db:	89 45 f8             	mov    %eax,-0x8(%ebp)
  1036de:	8b 45 e4             	mov    -0x1c(%ebp),%eax
  1036e1:	3b 45 f8             	cmp    -0x8(%ebp),%eax
  1036e4:	73 1e                	jae    103704 <move_stack+0xe3>
  1036e6:	a1 00 60 10 00       	mov    0x106000,%eax
  1036eb:	39 45 f8             	cmp    %eax,-0x8(%ebp)
  1036ee:	73 14                	jae    103704 <move_stack+0xe3>
  1036f0:	8b 45 ec             	mov    -0x14(%ebp),%eax
  1036f3:	01 45 f8             	add    %eax,-0x8(%ebp)
  1036f6:	8b 45 dc             	mov    -0x24(%ebp),%eax
  1036f9:	89 45 fc             	mov    %eax,-0x4(%ebp)
  1036fc:	8b 55 fc             	mov    -0x4(%ebp),%edx
  1036ff:	8b 45 f8             	mov    -0x8(%ebp),%eax
  103702:	89 02                	mov    %eax,(%edx)
  103704:	83 6d dc 04          	subl   $0x4,-0x24(%ebp)
  103708:	8b 45 08             	mov    0x8(%ebp),%eax
  10370b:	2b 45 0c             	sub    0xc(%ebp),%eax
  10370e:	3b 45 dc             	cmp    -0x24(%ebp),%eax
  103711:	72 c3                	jb     1036d6 <move_stack+0xb5>
  103713:	8b 45 f0             	mov    -0x10(%ebp),%eax
  103716:	89 c4                	mov    %eax,%esp
  103718:	8b 45 f4             	mov    -0xc(%ebp),%eax
  10371b:	89 c5                	mov    %eax,%ebp
  10371d:	c9                   	leave  
  10371e:	c3                   	ret    

0010371f <switch_task>:
  10371f:	55                   	push   %ebp
  103720:	89 e5                	mov    %esp,%ebp
  103722:	53                   	push   %ebx
  103723:	83 ec 14             	sub    $0x14,%esp
  103726:	a1 f8 6d 10 00       	mov    0x106df8,%eax
  10372b:	85 c0                	test   %eax,%eax
  10372d:	0f 84 cc 00 00 00    	je     1037ff <switch_task+0xe0>
  103733:	89 e0                	mov    %esp,%eax
  103735:	89 45 f0             	mov    %eax,-0x10(%ebp)
  103738:	89 e8                	mov    %ebp,%eax
  10373a:	89 45 f4             	mov    %eax,-0xc(%ebp)
  10373d:	e8 0e 02 00 00       	call   103950 <read_eip>
  103742:	89 45 f8             	mov    %eax,-0x8(%ebp)
  103745:	81 7d f8 45 23 01 00 	cmpl   $0x12345,-0x8(%ebp)
  10374c:	0f 84 ad 00 00 00    	je     1037ff <switch_task+0xe0>
  103752:	8b 15 f8 6d 10 00    	mov    0x106df8,%edx
  103758:	8b 45 f8             	mov    -0x8(%ebp),%eax
  10375b:	89 42 0c             	mov    %eax,0xc(%edx)
  10375e:	8b 15 f8 6d 10 00    	mov    0x106df8,%edx
  103764:	8b 45 f0             	mov    -0x10(%ebp),%eax
  103767:	89 42 04             	mov    %eax,0x4(%edx)
  10376a:	8b 15 f8 6d 10 00    	mov    0x106df8,%edx
  103770:	8b 45 f4             	mov    -0xc(%ebp),%eax
  103773:	89 42 08             	mov    %eax,0x8(%edx)
  103776:	a1 f8 6d 10 00       	mov    0x106df8,%eax
  10377b:	8b 40 18             	mov    0x18(%eax),%eax
  10377e:	a3 f8 6d 10 00       	mov    %eax,0x106df8
  103783:	a1 f8 6d 10 00       	mov    0x106df8,%eax
  103788:	85 c0                	test   %eax,%eax
  10378a:	75 0a                	jne    103796 <switch_task+0x77>
  10378c:	a1 f4 6d 10 00       	mov    0x106df4,%eax
  103791:	a3 f8 6d 10 00       	mov    %eax,0x106df8
  103796:	a1 f8 6d 10 00       	mov    0x106df8,%eax
  10379b:	8b 40 0c             	mov    0xc(%eax),%eax
  10379e:	89 45 f8             	mov    %eax,-0x8(%ebp)
  1037a1:	a1 f8 6d 10 00       	mov    0x106df8,%eax
  1037a6:	8b 40 04             	mov    0x4(%eax),%eax
  1037a9:	89 45 f0             	mov    %eax,-0x10(%ebp)
  1037ac:	a1 f8 6d 10 00       	mov    0x106df8,%eax
  1037b1:	8b 40 08             	mov    0x8(%eax),%eax
  1037b4:	89 45 f4             	mov    %eax,-0xc(%ebp)
  1037b7:	a1 f8 6d 10 00       	mov    0x106df8,%eax
  1037bc:	8b 40 10             	mov    0x10(%eax),%eax
  1037bf:	a3 10 50 10 00       	mov    %eax,0x105010
  1037c4:	a1 f8 6d 10 00       	mov    0x106df8,%eax
  1037c9:	8b 40 14             	mov    0x14(%eax),%eax
  1037cc:	05 00 08 00 00       	add    $0x800,%eax
  1037d1:	89 04 24             	mov    %eax,(%esp)
  1037d4:	e8 8c d2 ff ff       	call   100a65 <set_kernel_stack>
  1037d9:	a1 10 50 10 00       	mov    0x105010,%eax
  1037de:	8b 98 00 20 00 00    	mov    0x2000(%eax),%ebx
  1037e4:	8b 4d f8             	mov    -0x8(%ebp),%ecx
  1037e7:	8b 55 f0             	mov    -0x10(%ebp),%edx
  1037ea:	8b 45 f4             	mov    -0xc(%ebp),%eax
  1037ed:	fa                   	cli    
  1037ee:	89 c9                	mov    %ecx,%ecx
  1037f0:	89 d4                	mov    %edx,%esp
  1037f2:	89 c5                	mov    %eax,%ebp
  1037f4:	0f 22 db             	mov    %ebx,%cr3
  1037f7:	b8 45 23 01 00       	mov    $0x12345,%eax
  1037fc:	fb                   	sti    
  1037fd:	ff e1                	jmp    *%ecx
  1037ff:	83 c4 14             	add    $0x14,%esp
  103802:	5b                   	pop    %ebx
  103803:	5d                   	pop    %ebp
  103804:	c3                   	ret    

00103805 <fork>:
  103805:	55                   	push   %ebp
  103806:	89 e5                	mov    %esp,%ebp
  103808:	53                   	push   %ebx
  103809:	83 ec 34             	sub    $0x34,%esp
  10380c:	fa                   	cli    
  10380d:	a1 f8 6d 10 00       	mov    0x106df8,%eax
  103812:	89 45 e0             	mov    %eax,-0x20(%ebp)
  103815:	a1 10 50 10 00       	mov    0x105010,%eax
  10381a:	89 04 24             	mov    %eax,(%esp)
  10381d:	e8 d0 f1 ff ff       	call   1029f2 <clone_directory>
  103822:	89 45 e4             	mov    %eax,-0x1c(%ebp)
  103825:	c7 04 24 1c 00 00 00 	movl   $0x1c,(%esp)
  10382c:	e8 70 e0 ff ff       	call   1018a1 <kmalloc>
  103831:	89 45 e8             	mov    %eax,-0x18(%ebp)
  103834:	8b 0d 08 40 10 00    	mov    0x104008,%ecx
  10383a:	89 ca                	mov    %ecx,%edx
  10383c:	8b 45 e8             	mov    -0x18(%ebp),%eax
  10383f:	89 10                	mov    %edx,(%eax)
  103841:	8d 41 01             	lea    0x1(%ecx),%eax
  103844:	a3 08 40 10 00       	mov    %eax,0x104008
  103849:	8b 45 e8             	mov    -0x18(%ebp),%eax
  10384c:	c7 40 08 00 00 00 00 	movl   $0x0,0x8(%eax)
  103853:	8b 45 e8             	mov    -0x18(%ebp),%eax
  103856:	8b 50 08             	mov    0x8(%eax),%edx
  103859:	8b 45 e8             	mov    -0x18(%ebp),%eax
  10385c:	89 50 04             	mov    %edx,0x4(%eax)
  10385f:	8b 45 e8             	mov    -0x18(%ebp),%eax
  103862:	c7 40 0c 00 00 00 00 	movl   $0x0,0xc(%eax)
  103869:	8b 55 e8             	mov    -0x18(%ebp),%edx
  10386c:	8b 45 e4             	mov    -0x1c(%ebp),%eax
  10386f:	89 42 10             	mov    %eax,0x10(%edx)
  103872:	8b 1d f8 6d 10 00    	mov    0x106df8,%ebx
  103878:	c7 04 24 00 08 00 00 	movl   $0x800,(%esp)
  10387f:	e8 b6 df ff ff       	call   10183a <kmalloc_a>
  103884:	89 43 14             	mov    %eax,0x14(%ebx)
  103887:	8b 45 e8             	mov    -0x18(%ebp),%eax
  10388a:	c7 40 18 00 00 00 00 	movl   $0x0,0x18(%eax)
  103891:	a1 f4 6d 10 00       	mov    0x106df4,%eax
  103896:	89 45 ec             	mov    %eax,-0x14(%ebp)
  103899:	eb 09                	jmp    1038a4 <fork+0x9f>
  10389b:	8b 45 ec             	mov    -0x14(%ebp),%eax
  10389e:	8b 40 18             	mov    0x18(%eax),%eax
  1038a1:	89 45 ec             	mov    %eax,-0x14(%ebp)
  1038a4:	8b 45 ec             	mov    -0x14(%ebp),%eax
  1038a7:	8b 40 18             	mov    0x18(%eax),%eax
  1038aa:	85 c0                	test   %eax,%eax
  1038ac:	75 ed                	jne    10389b <fork+0x96>
  1038ae:	8b 55 ec             	mov    -0x14(%ebp),%edx
  1038b1:	8b 45 e8             	mov    -0x18(%ebp),%eax
  1038b4:	89 42 18             	mov    %eax,0x18(%edx)
  1038b7:	e8 94 00 00 00       	call   103950 <read_eip>
  1038bc:	89 45 f0             	mov    %eax,-0x10(%ebp)
  1038bf:	8b 15 f8 6d 10 00    	mov    0x106df8,%edx
  1038c5:	8b 45 e0             	mov    -0x20(%ebp),%eax
  1038c8:	39 c2                	cmp    %eax,%edx
  1038ca:	75 30                	jne    1038fc <fork+0xf7>
  1038cc:	89 e0                	mov    %esp,%eax
  1038ce:	89 45 f4             	mov    %eax,-0xc(%ebp)
  1038d1:	89 e8                	mov    %ebp,%eax
  1038d3:	89 45 f8             	mov    %eax,-0x8(%ebp)
  1038d6:	8b 55 e8             	mov    -0x18(%ebp),%edx
  1038d9:	8b 45 f4             	mov    -0xc(%ebp),%eax
  1038dc:	89 42 04             	mov    %eax,0x4(%edx)
  1038df:	8b 55 e8             	mov    -0x18(%ebp),%edx
  1038e2:	8b 45 f8             	mov    -0x8(%ebp),%eax
  1038e5:	89 42 08             	mov    %eax,0x8(%edx)
  1038e8:	8b 55 e8             	mov    -0x18(%ebp),%edx
  1038eb:	8b 45 f0             	mov    -0x10(%ebp),%eax
  1038ee:	89 42 0c             	mov    %eax,0xc(%edx)
  1038f1:	fb                   	sti    
  1038f2:	8b 45 e8             	mov    -0x18(%ebp),%eax
  1038f5:	8b 00                	mov    (%eax),%eax
  1038f7:	89 45 d8             	mov    %eax,-0x28(%ebp)
  1038fa:	eb 07                	jmp    103903 <fork+0xfe>
  1038fc:	c7 45 d8 00 00 00 00 	movl   $0x0,-0x28(%ebp)
  103903:	8b 45 d8             	mov    -0x28(%ebp),%eax
  103906:	83 c4 34             	add    $0x34,%esp
  103909:	5b                   	pop    %ebx
  10390a:	5d                   	pop    %ebp
  10390b:	c3                   	ret    

0010390c <getpid>:
  10390c:	55                   	push   %ebp
  10390d:	89 e5                	mov    %esp,%ebp
  10390f:	a1 f8 6d 10 00       	mov    0x106df8,%eax
  103914:	8b 00                	mov    (%eax),%eax
  103916:	5d                   	pop    %ebp
  103917:	c3                   	ret    

00103918 <switch_to_user_mode>:
  103918:	55                   	push   %ebp
  103919:	89 e5                	mov    %esp,%ebp
  10391b:	83 ec 08             	sub    $0x8,%esp
  10391e:	a1 f8 6d 10 00       	mov    0x106df8,%eax
  103923:	8b 40 14             	mov    0x14(%eax),%eax
  103926:	05 00 08 00 00       	add    $0x800,%eax
  10392b:	89 04 24             	mov    %eax,(%esp)
  10392e:	e8 32 d1 ff ff       	call   100a65 <set_kernel_stack>
  103933:	fa                   	cli    
  103934:	66 b8 23 00          	mov    $0x23,%ax
  103938:	8e d8                	mov    %eax,%ds
  10393a:	8e c0                	mov    %eax,%es
  10393c:	8e e0                	mov    %eax,%fs
  10393e:	8e e8                	mov    %eax,%gs
  103940:	89 e0                	mov    %esp,%eax
  103942:	6a 23                	push   $0x23
  103944:	54                   	push   %esp
  103945:	9c                   	pushf  
  103946:	6a 1b                	push   $0x1b
  103948:	68 4e 39 10 00       	push   $0x10394e
  10394d:	cf                   	iret   
  10394e:	c9                   	leave  
  10394f:	c3                   	ret    

00103950 <read_eip>:
  103950:	58                   	pop    %eax
  103951:	ff e0                	jmp    *%eax

00103953 <copy_page_physical>:
  103953:	53                   	push   %ebx
  103954:	9c                   	pushf  
  103955:	fa                   	cli    
  103956:	8b 5c 24 0c          	mov    0xc(%esp),%ebx
  10395a:	8b 4c 24 10          	mov    0x10(%esp),%ecx
  10395e:	0f 20 c2             	mov    %cr0,%edx
  103961:	81 e2 ff ff ff 7f    	and    $0x7fffffff,%edx
  103967:	0f 22 c2             	mov    %edx,%cr0
  10396a:	ba 00 04 00 00       	mov    $0x400,%edx

0010396f <copy_page_physical.loop>:
  10396f:	8b 03                	mov    (%ebx),%eax
  103971:	89 01                	mov    %eax,(%ecx)
  103973:	81 c3 04 00 00 00    	add    $0x4,%ebx
  103979:	81 c1 04 00 00 00    	add    $0x4,%ecx
  10397f:	4a                   	dec    %edx
  103980:	75 ed                	jne    10396f <copy_page_physical.loop>
  103982:	0f 20 c2             	mov    %cr0,%edx
  103985:	81 ca 00 00 00 80    	or     $0x80000000,%edx
  10398b:	0f 22 c2             	mov    %edx,%cr0
  10398e:	9d                   	popf   
  10398f:	5b                   	pop    %ebx
  103990:	c3                   	ret    
  103991:	00 00                	add    %al,(%eax)
	...

00103994 <syscall_monitor_write>:
  103994:	55                   	push   %ebp
  103995:	89 e5                	mov    %esp,%ebp
  103997:	53                   	push   %ebx
  103998:	83 ec 10             	sub    $0x10,%esp
  10399b:	8b 5d 08             	mov    0x8(%ebp),%ebx
  10399e:	b8 00 00 00 00       	mov    $0x0,%eax
  1039a3:	cd 80                	int    $0x80
  1039a5:	89 45 f8             	mov    %eax,-0x8(%ebp)
  1039a8:	8b 45 f8             	mov    -0x8(%ebp),%eax
  1039ab:	83 c4 10             	add    $0x10,%esp
  1039ae:	5b                   	pop    %ebx
  1039af:	5d                   	pop    %ebp
  1039b0:	c3                   	ret    

001039b1 <syscall_monitor_write_hex>:
  1039b1:	55                   	push   %ebp
  1039b2:	89 e5                	mov    %esp,%ebp
  1039b4:	53                   	push   %ebx
  1039b5:	83 ec 10             	sub    $0x10,%esp
  1039b8:	8b 5d 08             	mov    0x8(%ebp),%ebx
  1039bb:	b8 01 00 00 00       	mov    $0x1,%eax
  1039c0:	cd 80                	int    $0x80
  1039c2:	89 45 f8             	mov    %eax,-0x8(%ebp)
  1039c5:	8b 45 f8             	mov    -0x8(%ebp),%eax
  1039c8:	83 c4 10             	add    $0x10,%esp
  1039cb:	5b                   	pop    %ebx
  1039cc:	5d                   	pop    %ebp
  1039cd:	c3                   	ret    

001039ce <syscall_monitor_write_dec>:
  1039ce:	55                   	push   %ebp
  1039cf:	89 e5                	mov    %esp,%ebp
  1039d1:	53                   	push   %ebx
  1039d2:	83 ec 10             	sub    $0x10,%esp
  1039d5:	8b 5d 08             	mov    0x8(%ebp),%ebx
  1039d8:	b8 02 00 00 00       	mov    $0x2,%eax
  1039dd:	cd 80                	int    $0x80
  1039df:	89 45 f8             	mov    %eax,-0x8(%ebp)
  1039e2:	8b 45 f8             	mov    -0x8(%ebp),%eax
  1039e5:	83 c4 10             	add    $0x10,%esp
  1039e8:	5b                   	pop    %ebx
  1039e9:	5d                   	pop    %ebp
  1039ea:	c3                   	ret    

001039eb <initialise_syscalls>:
  1039eb:	55                   	push   %ebp
  1039ec:	89 e5                	mov    %esp,%ebp
  1039ee:	83 ec 08             	sub    $0x8,%esp
  1039f1:	c7 44 24 04 07 3a 10 	movl   $0x103a07,0x4(%esp)
  1039f8:	00 
  1039f9:	c7 04 24 80 00 00 00 	movl   $0x80,(%esp)
  103a00:	e8 ff d8 ff ff       	call   101304 <register_interrupt_handler>
  103a05:	c9                   	leave  
  103a06:	c3                   	ret    

00103a07 <syscall_handler>:
  103a07:	55                   	push   %ebp
  103a08:	89 e5                	mov    %esp,%ebp
  103a0a:	57                   	push   %edi
  103a0b:	56                   	push   %esi
  103a0c:	53                   	push   %ebx
  103a0d:	83 ec 10             	sub    $0x10,%esp
  103a10:	8b 45 08             	mov    0x8(%ebp),%eax
  103a13:	8b 50 20             	mov    0x20(%eax),%edx
  103a16:	a1 18 40 10 00       	mov    0x104018,%eax
  103a1b:	39 c2                	cmp    %eax,%edx
  103a1d:	73 49                	jae    103a68 <syscall_handler+0x61>
  103a1f:	8b 45 08             	mov    0x8(%ebp),%eax
  103a22:	8b 40 20             	mov    0x20(%eax),%eax
  103a25:	8b 04 85 0c 40 10 00 	mov    0x10400c(,%eax,4),%eax
  103a2c:	89 45 ec             	mov    %eax,-0x14(%ebp)
  103a2f:	8b 45 08             	mov    0x8(%ebp),%eax
  103a32:	8b 70 04             	mov    0x4(%eax),%esi
  103a35:	8b 45 08             	mov    0x8(%ebp),%eax
  103a38:	8b 78 08             	mov    0x8(%eax),%edi
  103a3b:	8b 45 08             	mov    0x8(%ebp),%eax
  103a3e:	8b 58 18             	mov    0x18(%eax),%ebx
  103a41:	8b 45 08             	mov    0x8(%ebp),%eax
  103a44:	8b 48 1c             	mov    0x1c(%eax),%ecx
  103a47:	8b 45 08             	mov    0x8(%ebp),%eax
  103a4a:	8b 50 14             	mov    0x14(%eax),%edx
  103a4d:	8b 45 ec             	mov    -0x14(%ebp),%eax
  103a50:	56                   	push   %esi
  103a51:	57                   	push   %edi
  103a52:	53                   	push   %ebx
  103a53:	51                   	push   %ecx
  103a54:	52                   	push   %edx
  103a55:	ff d0                	call   *%eax
  103a57:	5b                   	pop    %ebx
  103a58:	5b                   	pop    %ebx
  103a59:	5b                   	pop    %ebx
  103a5a:	5b                   	pop    %ebx
  103a5b:	5b                   	pop    %ebx
  103a5c:	89 45 f0             	mov    %eax,-0x10(%ebp)
  103a5f:	8b 55 f0             	mov    -0x10(%ebp),%edx
  103a62:	8b 45 08             	mov    0x8(%ebp),%eax
  103a65:	89 50 20             	mov    %edx,0x20(%eax)
  103a68:	83 c4 10             	add    $0x10,%esp
  103a6b:	5b                   	pop    %ebx
  103a6c:	5e                   	pop    %esi
  103a6d:	5f                   	pop    %edi
  103a6e:	5d                   	pop    %ebp
  103a6f:	c3                   	ret    
	...
